
Calibrator_v3.0.elf:     file format elf32-avr

Sections:
Idx Name          Size      VMA       LMA       File off  Algn
  0 .data         00000030  00800100  000039cc  00003a80  2**0
                  CONTENTS, ALLOC, LOAD, DATA
  1 .text         000039cc  00000000  00000000  000000b4  2**1
                  CONTENTS, ALLOC, LOAD, READONLY, CODE
  2 .bss          000001dc  00800130  00800130  00003ab0  2**0
                  ALLOC
  3 .eeprom       00000200  00810000  00810000  00003ab0  2**0
                  CONTENTS, ALLOC, LOAD, DATA
  4 .comment      00000030  00000000  00000000  00003cb0  2**0
                  CONTENTS, READONLY
  5 .note.gnu.avr.deviceinfo 00000040  00000000  00000000  00003ce0  2**2
                  CONTENTS, READONLY

Disassembly of section .text:

00000000 <.text>:
       0:	58 c4       	rjmp	.+2224   	;  0x8b2
       2:	00 00       	nop
       4:	73 c4       	rjmp	.+2278   	;  0x8ec
       6:	00 00       	nop
       8:	0c 94 9a 19 	jmp	0x3334	;  0x3334
       c:	6f c4       	rjmp	.+2270   	;  0x8ec
       e:	00 00       	nop
      10:	6d c4       	rjmp	.+2266   	;  0x8ec
      12:	00 00       	nop
      14:	6b c4       	rjmp	.+2262   	;  0x8ec
      16:	00 00       	nop
      18:	69 c4       	rjmp	.+2258   	;  0x8ec
      1a:	00 00       	nop
      1c:	a2 c5       	rjmp	.+2884   	;  0xb62
      1e:	00 00       	nop
      20:	65 c4       	rjmp	.+2250   	;  0x8ec
      22:	00 00       	nop
      24:	0c 94 ac 09 	jmp	0x1358	;  0x1358
      28:	f0 c5       	rjmp	.+3040   	;  0xc0a
      2a:	00 00       	nop
      2c:	5f c4       	rjmp	.+2238   	;  0x8ec
      2e:	00 00       	nop
      30:	5d c4       	rjmp	.+2234   	;  0x8ec
      32:	00 00       	nop
      34:	1b c6       	rjmp	.+3126   	;  0xc6c
      36:	00 00       	nop
      38:	59 c4       	rjmp	.+2226   	;  0x8ec
      3a:	00 00       	nop
      3c:	57 c4       	rjmp	.+2222   	;  0x8ec
      3e:	00 00       	nop
      40:	0c 94 d6 0a 	jmp	0x15ac	;  0x15ac
      44:	53 c4       	rjmp	.+2214   	;  0x8ec
      46:	00 00       	nop
      48:	0c 94 ed 08 	jmp	0x11da	;  0x11da
      4c:	0c 94 68 09 	jmp	0x12d0	;  0x12d0
      50:	0c 94 49 09 	jmp	0x1292	;  0x1292
      54:	4b c4       	rjmp	.+2198   	;  0x8ec
      56:	00 00       	nop
      58:	49 c4       	rjmp	.+2194   	;  0x8ec
      5a:	00 00       	nop
      5c:	47 c4       	rjmp	.+2190   	;  0x8ec
      5e:	00 00       	nop
      60:	45 c4       	rjmp	.+2186   	;  0x8ec
      62:	00 00       	nop
      64:	43 c4       	rjmp	.+2182   	;  0x8ec
      66:	00 00       	nop
      68:	f2 0e       	add	r15, r18
      6a:	f7 0e       	add	r15, r23
      6c:	fe 0e       	add	r15, r30
      6e:	03 0f       	add	r16, r19
      70:	08 0f       	add	r16, r24
      72:	0a 0f       	add	r16, r26
      74:	0f 0f       	add	r16, r31
      76:	7b 13       	cpse	r23, r27
      78:	8f 13       	cpse	r24, r31
      7a:	c1 13       	cpse	r28, r17
      7c:	d5 13       	cpse	r29, r21
      7e:	de 13       	cpse	r29, r30
      80:	e0 13       	cpse	r30, r16
      82:	f4 13       	cpse	r31, r20
      84:	08 14       	cp	r0, r8
      86:	1c 14       	cp	r1, r12
      88:	f0 fc       	sbrc	r15, 0
      8a:	06 03       	mulsu	r16, r22
      8c:	03 03       	mulsu	r16, r19
      8e:	03 06       	cpc	r0, r19
      90:	fc f0       	brlt	.+62     	;  0xd0
      92:	00 07       	cpc	r16, r16
      94:	1f 30       	cpi	r17, 0x0F	; 15
      96:	60 60       	ori	r22, 0x00	; 0
      98:	60 60       	ori	r22, 0x00	; 0
      9a:	30 1f       	adc	r19, r16
      9c:	07 00       	.word	0x0007	; ????
      9e:	00 18       	sub	r0, r0
      a0:	0c 06       	cpc	r0, r28
      a2:	03 ff       	sbrs	r16, 3
      a4:	ff 00       	.word	0x00ff	; ????
	...
      ae:	7f 7f       	andi	r23, 0xFF	; 255
      b0:	00 00       	nop
      b2:	00 00       	nop
      b4:	00 04       	cpc	r0, r0
      b6:	06 03       	mulsu	r16, r22
      b8:	03 03       	mulsu	r16, r19
      ba:	03 c3       	rjmp	.+1542   	;  0x6c2
      bc:	fe 3c       	cpi	r31, 0xCE	; 206
      be:	00 00       	nop
      c0:	60 70       	andi	r22, 0x00	; 0
      c2:	78 6c       	ori	r23, 0xC8	; 200
      c4:	66 63       	ori	r22, 0x36	; 54
      c6:	61 60       	ori	r22, 0x01	; 1
      c8:	60 60       	ori	r22, 0x00	; 0
      ca:	00 02       	muls	r16, r16
      cc:	03 c3       	rjmp	.+1542   	;  0x6d4
      ce:	c3 c3       	rjmp	.+1926   	;  0x856
      d0:	c3 e3       	ldi	r28, 0x33	; 51
      d2:	be 1c       	adc	r11, r14
      d4:	00 00       	nop
      d6:	20 60       	ori	r18, 0x00	; 0
      d8:	60 60       	ori	r22, 0x00	; 0
      da:	60 60       	ori	r22, 0x00	; 0
      dc:	71 3f       	cpi	r23, 0xF1	; 241
      de:	1f 00       	.word	0x001f	; ????
      e0:	80 c0       	rjmp	.+256    	;  0x1e2
      e2:	60 30       	cpi	r22, 0x00	; 0
      e4:	18 0c       	add	r1, r8
      e6:	06 ff       	sbrs	r16, 6
      e8:	ff 00       	.word	0x00ff	; ????
      ea:	00 07       	cpc	r16, r16
      ec:	07 06       	cpc	r0, r23
      ee:	06 06       	cpc	r0, r22
      f0:	06 06       	cpc	r0, r22
      f2:	7f 7f       	andi	r23, 0xFF	; 255
      f4:	06 00       	.word	0x0006	; ????
      f6:	00 fe       	sbrs	r0, 0
      f8:	ff c3       	rjmp	.+2046   	;  0x8f8
      fa:	c3 c3       	rjmp	.+1926   	;  0x882
      fc:	c3 c3       	rjmp	.+1926   	;  0x884
      fe:	83 00       	.word	0x0083	; ????
     100:	00 00       	nop
     102:	20 60       	ori	r18, 0x00	; 0
     104:	60 60       	ori	r22, 0x00	; 0
     106:	60 60       	ori	r22, 0x00	; 0
     108:	31 3f       	cpi	r19, 0xF1	; 241
     10a:	1f 00       	.word	0x001f	; ????
     10c:	f0 fc       	sbrc	r15, 0
     10e:	8e c6       	rjmp	.+3356   	;  0xe2c
     110:	c3 c3       	rjmp	.+1926   	;  0x898
     112:	c3 c3       	rjmp	.+1926   	;  0x89a
     114:	83 00       	.word	0x0083	; ????
     116:	00 0f       	add	r16, r16
     118:	1f 31       	cpi	r17, 0x1F	; 31
     11a:	60 60       	ori	r22, 0x00	; 0
     11c:	60 60       	ori	r22, 0x00	; 0
     11e:	70 3f       	cpi	r23, 0xF0	; 240
     120:	1f 00       	.word	0x001f	; ????
     122:	00 03       	mulsu	r16, r16
     124:	03 03       	mulsu	r16, r19
     126:	03 83       	std	Z+3, r16	; 0x03
     128:	e3 7b       	andi	r30, 0xB3	; 179
     12a:	1f 07       	cpc	r17, r31
     12c:	00 00       	nop
     12e:	00 60       	ori	r16, 0x00	; 0
     130:	78 1e       	adc	r7, r24
     132:	07 01       	movw	r0, r14
     134:	00 00       	nop
     136:	00 00       	nop
     138:	00 1c       	adc	r0, r0
     13a:	be e3       	ldi	r27, 0x3E	; 62
     13c:	c3 c3       	rjmp	.+1926   	;  0x8c4
     13e:	e3 be       	out	0x33, r14	; 51
     140:	1c 00       	.word	0x001c	; ????
     142:	00 1e       	adc	r0, r16
     144:	3f 61       	ori	r19, 0x1F	; 31
     146:	60 60       	ori	r22, 0x00	; 0
     148:	60 60       	ori	r22, 0x00	; 0
     14a:	61 3f       	cpi	r22, 0xF1	; 241
     14c:	1e 00       	.word	0x001e	; ????
     14e:	7c fe       	.word	0xfe7c	; ????
     150:	c7 83       	std	Z+7, r28	; 0x07
     152:	83 83       	std	Z+3, r24	; 0x03
     154:	83 c7       	rjmp	.+3846   	;  0x105c
     156:	fe f8       	.word	0xf8fe	; ????
     158:	00 00       	nop
     15a:	60 61       	ori	r22, 0x10	; 16
     15c:	61 61       	ori	r22, 0x11	; 17
     15e:	61 31       	cpi	r22, 0x11	; 17
     160:	39 1f       	adc	r19, r25
     162:	0f 00       	.word	0x000f	; ????
	...
     170:	00 00       	nop
     172:	00 70       	andi	r16, 0x00	; 0
     174:	70 70       	andi	r23, 0x00	; 0
     176:	00 00       	nop
     178:	00 00       	nop
     17a:	00 00       	nop
     17c:	fc fc       	.word	0xfcfc	; ????
     17e:	0c 0c       	add	r0, r12
     180:	0c 0c       	add	r0, r12
     182:	7c 7c       	andi	r23, 0xCC	; 204
     184:	00 00       	nop
     186:	00 7f       	andi	r16, 0xF0	; 240
     188:	7f 00       	.word	0x007f	; ????
	...
     19a:	00 7f       	andi	r16, 0xF0	; 240
     19c:	7f 60       	ori	r23, 0x0F	; 15
     19e:	60 60       	ori	r22, 0x00	; 0
     1a0:	7f ff       	.word	0xff7f	; ????
     1a2:	e0 00       	.word	0x00e0	; ????
     1a4:	00 00       	nop
     1a6:	00 00       	nop
     1a8:	fc fc       	.word	0xfcfc	; ????
     1aa:	8c 8c       	ldd	r8, Y+28	; 0x1c
     1ac:	8c 8c       	ldd	r8, Y+28	; 0x1c
     1ae:	fc 78       	andi	r31, 0x8C	; 140
     1b0:	00 00       	nop
     1b2:	00 7f       	andi	r16, 0xF0	; 240
     1b4:	7f 61       	ori	r23, 0x1F	; 31
     1b6:	61 61       	ori	r22, 0x11	; 17
     1b8:	61 7f       	andi	r22, 0xF1	; 241
     1ba:	3e 00       	.word	0x003e	; ????
     1bc:	00 00       	nop
     1be:	00 00       	nop
     1c0:	00 00       	nop
     1c2:	00 5f       	subi	r16, 0xF0	; 240
     1c4:	00 00       	nop
     1c6:	00 07       	cpc	r16, r16
     1c8:	00 07       	cpc	r16, r16
     1ca:	00 7e       	andi	r16, 0xE0	; 224
     1cc:	5f 5f       	subi	r21, 0xFF	; 255
     1ce:	5f 7e       	andi	r21, 0xEF	; 239
     1d0:	00 48       	sbci	r16, 0x80	; 128
     1d2:	2c 1a       	sub	r2, r28
     1d4:	09 23       	and	r16, r25
     1d6:	13 08       	sbc	r1, r3
     1d8:	64 62       	ori	r22, 0x24	; 36
     1da:	36 49       	sbci	r19, 0x96	; 150
     1dc:	56 20       	and	r5, r6
     1de:	50 00       	.word	0x0050	; ????
     1e0:	08 07       	cpc	r16, r24
     1e2:	03 00       	.word	0x0003	; ????
     1e4:	00 1c       	adc	r0, r0
     1e6:	22 41       	sbci	r18, 0x12	; 18
     1e8:	00 00       	nop
     1ea:	41 22       	and	r4, r17
     1ec:	1c 00       	.word	0x001c	; ????
     1ee:	24 18       	sub	r2, r4
     1f0:	7e 18       	sub	r7, r14
     1f2:	24 08       	sbc	r2, r4
     1f4:	08 3e       	cpi	r16, 0xE8	; 232
     1f6:	08 08       	sbc	r0, r8
     1f8:	00 80       	ld	r0, Z
     1fa:	70 30       	cpi	r23, 0x00	; 0
     1fc:	00 08       	sbc	r0, r0
     1fe:	08 08       	sbc	r0, r8
     200:	08 08       	sbc	r0, r8
     202:	00 00       	nop
     204:	60 60       	ori	r22, 0x00	; 0
     206:	00 20       	and	r0, r0
     208:	10 08       	sbc	r1, r0
     20a:	04 02       	muls	r16, r20
     20c:	3e 41       	sbci	r19, 0x1E	; 30
     20e:	49 41       	sbci	r20, 0x19	; 25
     210:	3e 00       	.word	0x003e	; ????
     212:	42 7f       	andi	r20, 0xF2	; 242
     214:	40 00       	.word	0x0040	; ????
     216:	72 49       	sbci	r23, 0x92	; 146
     218:	49 49       	sbci	r20, 0x99	; 153
     21a:	46 21       	and	r20, r6
     21c:	41 49       	sbci	r20, 0x91	; 145
     21e:	4d 33       	cpi	r20, 0x3D	; 61
     220:	18 14       	cp	r1, r8
     222:	12 7f       	andi	r17, 0xF2	; 242
     224:	10 27       	eor	r17, r16
     226:	45 45       	sbci	r20, 0x55	; 85
     228:	45 39       	cpi	r20, 0x95	; 149
     22a:	3c 4a       	sbci	r19, 0xAC	; 172
     22c:	49 49       	sbci	r20, 0x99	; 153
     22e:	31 41       	sbci	r19, 0x11	; 17
     230:	21 11       	cpse	r18, r1
     232:	09 07       	cpc	r16, r25
     234:	36 49       	sbci	r19, 0x96	; 150
     236:	49 49       	sbci	r20, 0x99	; 153
     238:	36 46       	sbci	r19, 0x66	; 102
     23a:	49 49       	sbci	r20, 0x99	; 153
     23c:	29 1e       	adc	r2, r25
     23e:	00 00       	nop
     240:	14 00       	.word	0x0014	; ????
     242:	00 00       	nop
     244:	40 34       	cpi	r20, 0x40	; 64
     246:	00 00       	nop
     248:	00 08       	sbc	r0, r0
     24a:	14 22       	and	r1, r20
     24c:	41 14       	cp	r4, r1
     24e:	14 14       	cp	r1, r4
     250:	14 14       	cp	r1, r4
     252:	00 41       	sbci	r16, 0x10	; 16
     254:	22 14       	cp	r2, r2
     256:	08 02       	muls	r16, r24
     258:	01 59       	subi	r16, 0x91	; 145
     25a:	09 06       	cpc	r0, r25
     25c:	3e 41       	sbci	r19, 0x1E	; 30
     25e:	5d 59       	subi	r21, 0x9D	; 157
     260:	4e 7c       	andi	r20, 0xCE	; 206
     262:	12 11       	cpse	r17, r2
     264:	12 7c       	andi	r17, 0xC2	; 194
     266:	7f 49       	sbci	r23, 0x9F	; 159
     268:	49 49       	sbci	r20, 0x99	; 153
     26a:	36 3e       	cpi	r19, 0xE6	; 230
     26c:	41 41       	sbci	r20, 0x11	; 17
     26e:	41 22       	and	r4, r17
     270:	7f 41       	sbci	r23, 0x1F	; 31
     272:	41 41       	sbci	r20, 0x11	; 17
     274:	3e 7f       	andi	r19, 0xFE	; 254
     276:	49 49       	sbci	r20, 0x99	; 153
     278:	49 41       	sbci	r20, 0x19	; 25
     27a:	7f 09       	sbc	r23, r15
     27c:	09 09       	sbc	r16, r9
     27e:	01 3e       	cpi	r16, 0xE1	; 225
     280:	41 41       	sbci	r20, 0x11	; 17
     282:	51 73       	andi	r21, 0x31	; 49
     284:	7f 08       	sbc	r7, r15
     286:	08 08       	sbc	r0, r8
     288:	7f 00       	.word	0x007f	; ????
     28a:	41 7f       	andi	r20, 0xF1	; 241
     28c:	41 00       	.word	0x0041	; ????
     28e:	20 40       	sbci	r18, 0x00	; 0
     290:	41 3f       	cpi	r20, 0xF1	; 241
     292:	01 7f       	andi	r16, 0xF1	; 241
     294:	08 14       	cp	r0, r8
     296:	22 41       	sbci	r18, 0x12	; 18
     298:	7f 40       	sbci	r23, 0x0F	; 15
     29a:	40 40       	sbci	r20, 0x00	; 0
     29c:	40 7f       	andi	r20, 0xF0	; 240
     29e:	02 1c       	adc	r0, r2
     2a0:	02 7f       	andi	r16, 0xF2	; 242
     2a2:	7f 04       	cpc	r7, r15
     2a4:	08 10       	cpse	r0, r8
     2a6:	7f 3e       	cpi	r23, 0xEF	; 239
     2a8:	41 41       	sbci	r20, 0x11	; 17
     2aa:	41 3e       	cpi	r20, 0xE1	; 225
     2ac:	7f 09       	sbc	r23, r15
     2ae:	09 09       	sbc	r16, r9
     2b0:	06 3e       	cpi	r16, 0xE6	; 230
     2b2:	41 51       	subi	r20, 0x11	; 17
     2b4:	21 5e       	subi	r18, 0xE1	; 225
     2b6:	7f 09       	sbc	r23, r15
     2b8:	19 29       	or	r17, r9
     2ba:	46 26       	eor	r4, r22
     2bc:	49 49       	sbci	r20, 0x99	; 153
     2be:	49 32       	cpi	r20, 0x29	; 41
     2c0:	03 01       	movw	r0, r6
     2c2:	7f 01       	movw	r14, r30
     2c4:	03 3f       	cpi	r16, 0xF3	; 243
     2c6:	40 40       	sbci	r20, 0x00	; 0
     2c8:	40 3f       	cpi	r20, 0xF0	; 240
     2ca:	1f 20       	and	r1, r15
     2cc:	40 20       	and	r4, r0
     2ce:	1f 3f       	cpi	r17, 0xFF	; 255
     2d0:	40 38       	cpi	r20, 0x80	; 128
     2d2:	40 3f       	cpi	r20, 0xF0	; 240
     2d4:	63 14       	cp	r6, r3
     2d6:	08 14       	cp	r0, r8
     2d8:	63 03       	mulsu	r22, r19
     2da:	04 78       	andi	r16, 0x84	; 132
     2dc:	04 03       	mulsu	r16, r20
     2de:	61 59       	subi	r22, 0x91	; 145
     2e0:	49 4d       	sbci	r20, 0xD9	; 217
     2e2:	43 00       	.word	0x0043	; ????
     2e4:	7f 41       	sbci	r23, 0x1F	; 31
     2e6:	41 41       	sbci	r20, 0x11	; 17
     2e8:	02 04       	cpc	r0, r2
     2ea:	08 10       	cpse	r0, r8
     2ec:	20 00       	.word	0x0020	; ????
     2ee:	41 41       	sbci	r20, 0x11	; 17
     2f0:	41 7f       	andi	r20, 0xF1	; 241
     2f2:	04 02       	muls	r16, r20
     2f4:	01 02       	muls	r16, r17
     2f6:	04 40       	sbci	r16, 0x04	; 4
     2f8:	40 40       	sbci	r20, 0x00	; 0
     2fa:	40 40       	sbci	r20, 0x00	; 0
     2fc:	00 03       	mulsu	r16, r16
     2fe:	07 08       	sbc	r0, r7
     300:	00 20       	and	r0, r0
     302:	54 54       	subi	r21, 0x44	; 68
     304:	78 40       	sbci	r23, 0x08	; 8
     306:	7f 28       	or	r7, r15
     308:	44 44       	sbci	r20, 0x44	; 68
     30a:	38 38       	cpi	r19, 0x88	; 136
     30c:	44 44       	sbci	r20, 0x44	; 68
     30e:	44 28       	or	r4, r4
     310:	38 44       	sbci	r19, 0x48	; 72
     312:	44 28       	or	r4, r4
     314:	7f 38       	cpi	r23, 0x8F	; 143
     316:	54 54       	subi	r21, 0x44	; 68
     318:	54 18       	sub	r5, r4
     31a:	00 08       	sbc	r0, r0
     31c:	7e 09       	sbc	r23, r14
     31e:	02 18       	sub	r0, r2
     320:	a4 a4       	ldd	r10, Z+44	; 0x2c
     322:	9c 78       	andi	r25, 0x8C	; 140
     324:	7f 08       	sbc	r7, r15
     326:	04 04       	cpc	r0, r4
     328:	78 00       	.word	0x0078	; ????
     32a:	44 7d       	andi	r20, 0xD4	; 212
     32c:	40 00       	.word	0x0040	; ????
     32e:	20 40       	sbci	r18, 0x00	; 0
     330:	40 3d       	cpi	r20, 0xD0	; 208
     332:	00 7f       	andi	r16, 0xF0	; 240
     334:	10 28       	or	r1, r0
     336:	44 00       	.word	0x0044	; ????
     338:	00 41       	sbci	r16, 0x10	; 16
     33a:	7f 40       	sbci	r23, 0x0F	; 15
     33c:	00 7c       	andi	r16, 0xC0	; 192
     33e:	04 78       	andi	r16, 0x84	; 132
     340:	04 78       	andi	r16, 0x84	; 132
     342:	7c 08       	sbc	r7, r12
     344:	04 04       	cpc	r0, r4
     346:	78 38       	cpi	r23, 0x88	; 136
     348:	44 44       	sbci	r20, 0x44	; 68
     34a:	44 38       	cpi	r20, 0x84	; 132
     34c:	fc 18       	sub	r15, r12
     34e:	24 24       	eor	r2, r4
     350:	18 18       	sub	r1, r8
     352:	24 24       	eor	r2, r4
     354:	18 fc       	.word	0xfc18	; ????
     356:	7c 08       	sbc	r7, r12
     358:	04 04       	cpc	r0, r4
     35a:	08 48       	sbci	r16, 0x88	; 136
     35c:	54 54       	subi	r21, 0x44	; 68
     35e:	54 24       	eor	r5, r4
     360:	04 04       	cpc	r0, r4
     362:	3f 44       	sbci	r19, 0x4F	; 79
     364:	24 3c       	cpi	r18, 0xC4	; 196
     366:	40 40       	sbci	r20, 0x00	; 0
     368:	20 7c       	andi	r18, 0xC0	; 192
     36a:	1c 20       	and	r1, r12
     36c:	40 20       	and	r4, r0
     36e:	1c 3c       	cpi	r17, 0xCC	; 204
     370:	40 30       	cpi	r20, 0x00	; 0
     372:	40 3c       	cpi	r20, 0xC0	; 192
     374:	44 28       	or	r4, r4
     376:	10 28       	or	r1, r0
     378:	44 4c       	sbci	r20, 0xC4	; 196
     37a:	90 90 90 7c 	lds	r9, 0x7C90	;  0x807c90
     37e:	44 64       	ori	r20, 0x44	; 68
     380:	54 4c       	sbci	r21, 0xC4	; 196
     382:	44 00       	.word	0x0044	; ????
     384:	08 36       	cpi	r16, 0x68	; 104
     386:	41 00       	.word	0x0041	; ????
     388:	00 00       	nop
     38a:	77 00       	.word	0x0077	; ????
     38c:	00 00       	nop
     38e:	41 36       	cpi	r20, 0x61	; 97
     390:	08 00       	.word	0x0008	; ????
     392:	02 01       	movw	r0, r4
     394:	02 04       	cpc	r0, r2
     396:	02 7c       	andi	r16, 0xC2	; 194
     398:	12 11       	cpse	r17, r2
     39a:	12 7c       	andi	r17, 0xC2	; 194
     39c:	7f 49       	sbci	r23, 0x9F	; 159
     39e:	49 49       	sbci	r20, 0x99	; 153
     3a0:	30 7f       	andi	r19, 0xF0	; 240
     3a2:	49 49       	sbci	r20, 0x99	; 153
     3a4:	49 36       	cpi	r20, 0x69	; 105
     3a6:	7f 01       	movw	r14, r30
     3a8:	01 01       	movw	r0, r2
     3aa:	01 60       	ori	r16, 0x01	; 1
     3ac:	3e 21       	and	r19, r14
     3ae:	3f 60       	ori	r19, 0x0F	; 15
     3b0:	7f 49       	sbci	r23, 0x9F	; 159
     3b2:	49 49       	sbci	r20, 0x99	; 153
     3b4:	41 77       	andi	r20, 0x71	; 113
     3b6:	08 7f       	andi	r16, 0xF8	; 248
     3b8:	08 77       	andi	r16, 0x78	; 120
     3ba:	22 49       	sbci	r18, 0x92	; 146
     3bc:	49 49       	sbci	r20, 0x99	; 153
     3be:	36 7f       	andi	r19, 0xF6	; 246
     3c0:	10 08       	sbc	r1, r0
     3c2:	04 7f       	andi	r16, 0xF4	; 244
     3c4:	7f 10       	cpse	r7, r15
     3c6:	09 04       	cpc	r0, r9
     3c8:	7f 7f       	andi	r23, 0xFF	; 255
     3ca:	08 14       	cp	r0, r8
     3cc:	22 41       	sbci	r18, 0x12	; 18
     3ce:	40 7e       	andi	r20, 0xE0	; 224
     3d0:	01 01       	movw	r0, r2
     3d2:	7f 7f       	andi	r23, 0xFF	; 255
     3d4:	02 04       	cpc	r0, r2
     3d6:	02 7f       	andi	r16, 0xF2	; 242
     3d8:	7f 08       	sbc	r7, r15
     3da:	08 08       	sbc	r0, r8
     3dc:	7f 3e       	cpi	r23, 0xEF	; 239
     3de:	41 41       	sbci	r20, 0x11	; 17
     3e0:	41 3e       	cpi	r20, 0xE1	; 225
     3e2:	7f 01       	movw	r14, r30
     3e4:	01 01       	movw	r0, r2
     3e6:	7f 7f       	andi	r23, 0xFF	; 255
     3e8:	09 09       	sbc	r16, r9
     3ea:	09 06       	cpc	r0, r25
     3ec:	3e 41       	sbci	r19, 0x1E	; 30
     3ee:	41 41       	sbci	r20, 0x11	; 17
     3f0:	22 03       	mulsu	r18, r18
     3f2:	01 7f       	andi	r16, 0xF1	; 241
     3f4:	01 03       	mulsu	r16, r17
     3f6:	27 48       	sbci	r18, 0x87	; 135
     3f8:	48 48       	sbci	r20, 0x88	; 136
     3fa:	3f 06       	cpc	r3, r31
     3fc:	09 7f       	andi	r16, 0xF9	; 249
     3fe:	09 06       	cpc	r0, r25
     400:	63 14       	cp	r6, r3
     402:	08 14       	cp	r0, r8
     404:	63 7f       	andi	r22, 0xF3	; 243
     406:	40 40       	sbci	r20, 0x00	; 0
     408:	40 ff       	sbrs	r20, 0
     40a:	0f 10       	cpse	r0, r15
     40c:	10 10       	cpse	r1, r0
     40e:	7f 7f       	andi	r23, 0xFF	; 255
     410:	40 7e       	andi	r20, 0xE0	; 224
     412:	40 7f       	andi	r20, 0xF0	; 240
     414:	7f 40       	sbci	r23, 0x0F	; 15
     416:	7e 40       	sbci	r23, 0x0E	; 14
     418:	ff 01       	movw	r30, r30
     41a:	7f 48       	sbci	r23, 0x8F	; 143
     41c:	48 30       	cpi	r20, 0x08	; 8
     41e:	7f 48       	sbci	r23, 0x8F	; 143
     420:	30 00       	.word	0x0030	; ????
     422:	7f 7f       	andi	r23, 0xFF	; 255
     424:	48 48       	sbci	r20, 0x88	; 136
     426:	48 30       	cpi	r20, 0x08	; 8
     428:	22 41       	sbci	r18, 0x12	; 18
     42a:	49 49       	sbci	r20, 0x99	; 153
     42c:	3e 7f       	andi	r19, 0xFE	; 254
     42e:	08 3e       	cpi	r16, 0xE8	; 232
     430:	41 3e       	cpi	r20, 0xE1	; 225
     432:	46 29       	or	r20, r6
     434:	19 09       	sbc	r17, r9
     436:	7f 20       	and	r7, r15
     438:	54 54       	subi	r21, 0x44	; 68
     43a:	78 40       	sbci	r23, 0x08	; 8
     43c:	3c 4a       	sbci	r19, 0xAC	; 172
     43e:	4a 4a       	sbci	r20, 0xAA	; 170
     440:	30 7c       	andi	r19, 0xC0	; 192
     442:	54 54       	subi	r21, 0x44	; 68
     444:	54 28       	or	r5, r4
     446:	7c 04       	cpc	r7, r12
     448:	04 04       	cpc	r0, r4
     44a:	04 18       	sub	r0, r4
     44c:	a4 a4       	ldd	r10, Z+44	; 0x2c
     44e:	94 78       	andi	r25, 0x84	; 132
     450:	38 54       	subi	r19, 0x48	; 72
     452:	54 54       	subi	r21, 0x44	; 68
     454:	18 6c       	ori	r17, 0xC8	; 200
     456:	10 7c       	andi	r17, 0xC0	; 192
     458:	10 6c       	ori	r17, 0xC0	; 192
     45a:	28 44       	sbci	r18, 0x48	; 72
     45c:	54 54       	subi	r21, 0x44	; 68
     45e:	28 7c       	andi	r18, 0xC8	; 200
     460:	20 10       	cpse	r2, r0
     462:	08 7c       	andi	r16, 0xC8	; 200
     464:	7c 20       	and	r7, r12
     466:	12 08       	sbc	r1, r2
     468:	7c 7c       	andi	r23, 0xCC	; 204
     46a:	10 28       	or	r1, r0
     46c:	44 00       	.word	0x0044	; ????
     46e:	40 78       	andi	r20, 0x80	; 128
     470:	04 04       	cpc	r0, r4
     472:	7c 7c       	andi	r23, 0xCC	; 204
     474:	08 10       	cpse	r0, r8
     476:	08 7c       	andi	r16, 0xC8	; 200
     478:	7c 10       	cpse	r7, r12
     47a:	10 10       	cpse	r1, r0
     47c:	7c 38       	cpi	r23, 0x8C	; 140
     47e:	44 44       	sbci	r20, 0x44	; 68
     480:	44 38       	cpi	r20, 0x84	; 132
     482:	7c 04       	cpc	r7, r12
     484:	04 04       	cpc	r0, r4
     486:	7c 7c       	andi	r23, 0xCC	; 204
     488:	14 14       	cp	r1, r4
     48a:	14 08       	sbc	r1, r4
     48c:	38 44       	sbci	r19, 0x48	; 72
     48e:	44 44       	sbci	r20, 0x44	; 68
     490:	28 0c       	add	r2, r8
     492:	04 7c       	andi	r16, 0xC4	; 196
     494:	04 0c       	add	r0, r4
     496:	4c 90       	ld	r4, X
     498:	90 90 7c 08 	lds	r9, 0x087C	;  0x80087c
     49c:	14 7c       	andi	r17, 0xC4	; 196
     49e:	14 08       	sbc	r1, r4
     4a0:	44 28       	or	r4, r4
     4a2:	10 28       	or	r1, r0
     4a4:	44 7c       	andi	r20, 0xC4	; 196
     4a6:	40 40       	sbci	r20, 0x00	; 0
     4a8:	40 fc       	sbrc	r4, 0
     4aa:	0c 10       	cpse	r0, r12
     4ac:	10 10       	cpse	r1, r0
     4ae:	7c 7c       	andi	r23, 0xCC	; 204
     4b0:	40 78       	andi	r20, 0x80	; 128
     4b2:	40 7c       	andi	r20, 0xC0	; 192
     4b4:	7c 40       	sbci	r23, 0x0C	; 12
     4b6:	78 40       	sbci	r23, 0x08	; 8
     4b8:	fc 04       	cpc	r15, r12
     4ba:	7c 50       	subi	r23, 0x0C	; 12
     4bc:	50 20       	and	r5, r0
     4be:	7c 50       	subi	r23, 0x0C	; 12
     4c0:	20 00       	.word	0x0020	; ????
     4c2:	7c 00       	.word	0x007c	; ????
     4c4:	7c 50       	subi	r23, 0x0C	; 12
     4c6:	50 20       	and	r5, r0
     4c8:	28 44       	sbci	r18, 0x48	; 72
     4ca:	54 54       	subi	r21, 0x44	; 68
     4cc:	38 7c       	andi	r19, 0xC8	; 200
     4ce:	10 38       	cpi	r17, 0x80	; 128
     4d0:	44 38       	cpi	r20, 0x84	; 132
     4d2:	08 54       	subi	r16, 0x48	; 72
     4d4:	34 14       	cp	r3, r4
     4d6:	7c 4e       	sbci	r23, 0xEC	; 236
     4d8:	6d 61       	ori	r22, 0x1D	; 29
     4da:	78 3a       	cpi	r23, 0xA8	; 168
     4dc:	00 49       	sbci	r16, 0x90	; 144
     4de:	44 20       	and	r4, r4
     4e0:	20 3a       	cpi	r18, 0xA0	; 160
     4e2:	00 30       	cpi	r16, 0x00	; 0
     4e4:	30 30       	cpi	r19, 0x00	; 0
     4e6:	30 30       	cpi	r19, 0x00	; 0
     4e8:	30 00       	.word	0x0030	; ????
     4ea:	9e 06       	cpc	r9, r30
     4ec:	11 08       	sbc	r1, r1
     4ee:	11 08       	sbc	r1, r1
     4f0:	11 08       	sbc	r1, r1
     4f2:	11 08       	sbc	r1, r1
     4f4:	11 08       	sbc	r1, r1
     4f6:	11 08       	sbc	r1, r1
     4f8:	ba 07       	cpc	r27, r26
     4fa:	a3 07       	cpc	r26, r19
     4fc:	11 08       	sbc	r1, r1
     4fe:	11 08       	sbc	r1, r1
     500:	11 08       	sbc	r1, r1
     502:	11 08       	sbc	r1, r1
     504:	11 08       	sbc	r1, r1
     506:	11 08       	sbc	r1, r1
     508:	ba 07       	cpc	r27, r26
     50a:	a0 05       	cpc	r26, r0
     50c:	11 08       	sbc	r1, r1
     50e:	11 08       	sbc	r1, r1
     510:	11 08       	sbc	r1, r1
     512:	11 08       	sbc	r1, r1
     514:	92 05       	cpc	r25, r2
     516:	11 08       	sbc	r1, r1
     518:	1b 06       	cpc	r1, r27
     51a:	04 06       	cpc	r0, r20
     51c:	11 08       	sbc	r1, r1
     51e:	ef 05       	cpc	r30, r15
     520:	d9 05       	cpc	r29, r9
     522:	11 08       	sbc	r1, r1
     524:	c4 05       	cpc	r28, r4
     526:	11 08       	sbc	r1, r1
     528:	b5 05       	cpc	r27, r5
     52a:	43 06       	cpc	r4, r19
     52c:	11 08       	sbc	r1, r1
     52e:	11 08       	sbc	r1, r1
     530:	30 06       	cpc	r3, r16
     532:	11 08       	sbc	r1, r1
     534:	11 08       	sbc	r1, r1
     536:	11 08       	sbc	r1, r1
     538:	1b 06       	cpc	r1, r27
     53a:	5a 06       	cpc	r5, r26
     53c:	11 08       	sbc	r1, r1
     53e:	11 08       	sbc	r1, r1
     540:	11 08       	sbc	r1, r1
     542:	11 08       	sbc	r1, r1
     544:	11 08       	sbc	r1, r1
     546:	11 08       	sbc	r1, r1
     548:	71 06       	cpc	r7, r17
     54a:	87 06       	cpc	r8, r23
     54c:	11 08       	sbc	r1, r1
     54e:	11 08       	sbc	r1, r1
     550:	11 08       	sbc	r1, r1
     552:	11 08       	sbc	r1, r1
     554:	11 08       	sbc	r1, r1
     556:	11 08       	sbc	r1, r1
     558:	71 06       	cpc	r7, r17
     55a:	ee 06       	cpc	r14, r30
     55c:	eb 06       	cpc	r14, r27
     55e:	e2 06       	cpc	r14, r18
     560:	d4 06       	cpc	r13, r20
     562:	c6 06       	cpc	r12, r22
     564:	b5 06       	cpc	r11, r21
     566:	2e 07       	cpc	r18, r30
     568:	11 08       	sbc	r1, r1
     56a:	a3 07       	cpc	r26, r19
     56c:	98 07       	cpc	r25, r24
     56e:	8d 07       	cpc	r24, r29
     570:	83 07       	cpc	r24, r19
     572:	7c 07       	cpc	r23, r28
     574:	69 07       	cpc	r22, r25
     576:	5e 07       	cpc	r21, r30
     578:	54 07       	cpc	r21, r20
     57a:	4f 07       	cpc	r20, r31
     57c:	44 07       	cpc	r20, r20
     57e:	34 07       	cpc	r19, r20
     580:	2e 07       	cpc	r18, r30
     582:	fa 07       	cpc	r31, r26
     584:	83 07       	cpc	r24, r19
     586:	ef 07       	cpc	r30, r31
     588:	e8 07       	cpc	r30, r24
     58a:	e1 07       	cpc	r30, r17
     58c:	11 08       	sbc	r1, r1
     58e:	11 08       	sbc	r1, r1
     590:	d0 07       	cpc	r29, r16
     592:	20 20       	and	r2, r0
     594:	20 20       	and	r2, r0
     596:	20 20       	and	r2, r0
     598:	20 20       	and	r2, r0
     59a:	52 65       	ori	r21, 0x52	; 82
     59c:	73 65       	ori	r23, 0x53	; 83
     59e:	74 00       	.word	0x0074	; ????
     5a0:	20 20       	and	r2, r0
     5a2:	5b 20       	and	r5, r11
     5a4:	45 64       	ori	r20, 0x45	; 69
     5a6:	69 74       	andi	r22, 0x49	; 73
     5a8:	20 73       	andi	r18, 0x30	; 48
     5aa:	65 74       	andi	r22, 0x45	; 69
     5ac:	74 69       	ori	r23, 0x94	; 148
     5ae:	6e 67       	ori	r22, 0x7E	; 126
     5b0:	73 20       	and	r7, r3
     5b2:	20 5d       	subi	r18, 0xD0	; 208
     5b4:	00 20       	and	r0, r0
     5b6:	20 20       	and	r2, r0
     5b8:	20 20       	and	r2, r0
     5ba:	20 20       	and	r2, r0
     5bc:	20 43       	sbci	r18, 0x30	; 48
     5be:	61 6e       	ori	r22, 0xE1	; 225
     5c0:	63 65       	ori	r22, 0x53	; 83
     5c2:	6c 00       	.word	0x006c	; ????
     5c4:	20 20       	and	r2, r0
     5c6:	28 44       	sbci	r18, 0x48	; 72
     5c8:	65 66       	ori	r22, 0x65	; 101
     5ca:	61 75       	andi	r22, 0x51	; 81
     5cc:	6c 74       	andi	r22, 0x4C	; 76
     5ce:	20 20       	and	r2, r0
     5d0:	3a 20       	and	r3, r10
     5d2:	31 39       	cpi	r19, 0x91	; 145
     5d4:	32 30       	cpi	r19, 0x02	; 2
     5d6:	30 29       	or	r19, r0
     5d8:	00 20       	and	r0, r0
     5da:	20 33       	cpi	r18, 0x30	; 48
     5dc:	38 34       	cpi	r19, 0x48	; 72
     5de:	30 30       	cpi	r19, 0x00	; 0
     5e0:	20 20       	and	r2, r0
     5e2:	35 37       	cpi	r19, 0x75	; 117
     5e4:	36 30       	cpi	r19, 0x06	; 6
     5e6:	30 20       	and	r3, r0
     5e8:	31 31       	cpi	r19, 0x11	; 17
     5ea:	35 32       	cpi	r19, 0x25	; 37
     5ec:	30 30       	cpi	r19, 0x00	; 0
     5ee:	00 20       	and	r0, r0
     5f0:	20 39       	cpi	r18, 0x90	; 144
     5f2:	36 30       	cpi	r19, 0x06	; 6
     5f4:	30 20       	and	r3, r0
     5f6:	20 20       	and	r2, r0
     5f8:	31 34       	cpi	r19, 0x41	; 65
     5fa:	34 34       	cpi	r19, 0x44	; 68
     5fc:	30 20       	and	r3, r0
     5fe:	31 39       	cpi	r19, 0x91	; 145
     600:	32 30       	cpi	r19, 0x02	; 2
     602:	30 00       	.word	0x0030	; ????
     604:	5b 20       	and	r5, r11
     606:	20 20       	and	r2, r0
     608:	20 20       	and	r2, r0
     60a:	20 42       	sbci	r18, 0x20	; 32
     60c:	61 75       	andi	r22, 0x51	; 81
     60e:	64 72       	andi	r22, 0x24	; 36
     610:	61 74       	andi	r22, 0x41	; 65
     612:	65 20       	and	r6, r5
     614:	20 20       	and	r2, r0
     616:	20 20       	and	r2, r0
     618:	20 5d       	subi	r18, 0xD0	; 208
     61a:	00 20       	and	r0, r0
     61c:	20 43       	sbci	r18, 0x30	; 48
     61e:	61 6e       	ori	r22, 0xE1	; 225
     620:	63 65       	ori	r22, 0x53	; 83
     622:	6c 20       	and	r6, r12
     624:	20 20       	and	r2, r0
     626:	20 20       	and	r2, r0
     628:	20 20       	and	r2, r0
     62a:	20 20       	and	r2, r0
     62c:	20 ce       	rjmp	.-960    	;  0x26e
     62e:	ca 00       	.word	0x00ca	; ????
     630:	20 20       	and	r2, r0
     632:	20 20       	and	r2, r0
     634:	2d 20       	and	r2, r13
     636:	20 20       	and	r2, r0
     638:	5b 20       	and	r5, r11
     63a:	30 31       	cpi	r19, 0x10	; 16
     63c:	20 5d       	subi	r18, 0xD0	; 208
     63e:	20 20       	and	r2, r0
     640:	20 2b       	or	r18, r16
     642:	00 5b       	subi	r16, 0xB0	; 176
     644:	20 20       	and	r2, r0
     646:	20 20       	and	r2, r0
     648:	20 49       	sbci	r18, 0x90	; 144
     64a:	44 20       	and	r4, r4
     64c:	73 65       	ori	r23, 0x53	; 83
     64e:	6e 73       	andi	r22, 0x3E	; 62
     650:	6f 72       	andi	r22, 0x2F	; 47
     652:	20 20       	and	r2, r0
     654:	20 20       	and	r2, r0
     656:	20 20       	and	r2, r0
     658:	5d 00       	.word	0x005d	; ????
     65a:	5b 20       	and	r5, r11
     65c:	41 6e       	ori	r20, 0xE1	; 225
     65e:	61 6c       	ori	r22, 0xC1	; 193
     660:	6f 67       	ori	r22, 0x7F	; 127
     662:	20 6f       	ori	r18, 0xF0	; 240
     664:	75 74       	andi	r23, 0x45	; 69
     666:	70 75       	andi	r23, 0x50	; 80
     668:	74 20       	and	r7, r4
     66a:	20 20       	and	r2, r0
     66c:	20 20       	and	r2, r0
     66e:	20 5d       	subi	r18, 0xD0	; 208
     670:	00 20       	and	r0, r0
     672:	45 78       	andi	r20, 0x85	; 133
     674:	69 74       	andi	r22, 0x49	; 73
     676:	20 20       	and	r2, r0
     678:	20 20       	and	r2, r0
     67a:	20 43       	sbci	r18, 0x30	; 48
     67c:	61 6c       	ori	r22, 0xC1	; 193
     67e:	69 62       	ori	r22, 0x29	; 41
     680:	72 61       	ori	r23, 0x12	; 18
     682:	74 69       	ori	r23, 0x94	; 148
     684:	6f 6e       	ori	r22, 0xEF	; 239
     686:	00 5b       	subi	r16, 0xB0	; 176
     688:	20 20       	and	r2, r0
     68a:	46 72       	andi	r20, 0x26	; 38
     68c:	65 71       	andi	r22, 0x15	; 21
     68e:	75 65       	ori	r23, 0x55	; 85
     690:	6e 63       	ori	r22, 0x3E	; 62
     692:	79 20       	and	r7, r9
     694:	6f 75       	andi	r22, 0x5F	; 95
     696:	74 70       	andi	r23, 0x04	; 4
     698:	75 74       	andi	r23, 0x45	; 69
     69a:	20 20       	and	r2, r0
     69c:	5d 00       	.word	0x005d	; ????
     69e:	5b 20       	and	r5, r11
     6a0:	20 20       	and	r2, r0
     6a2:	20 20       	and	r2, r0
     6a4:	52 53       	subi	r21, 0x32	; 50
     6a6:	34 38       	cpi	r19, 0x84	; 132
     6a8:	35 20       	and	r3, r5
     6aa:	6f 75       	andi	r22, 0x5F	; 95
     6ac:	74 70       	andi	r23, 0x04	; 4
     6ae:	75 74       	andi	r23, 0x45	; 69
     6b0:	20 20       	and	r2, r0
     6b2:	20 5d       	subi	r18, 0xD0	; 208
     6b4:	00 54       	subi	r16, 0x40	; 64
     6b6:	72 61       	ori	r23, 0x12	; 18
     6b8:	6e 73       	andi	r22, 0x3E	; 62
     6ba:	6d 69       	ori	r22, 0x9D	; 157
     6bc:	74 20       	and	r7, r4
     6be:	74 69       	ori	r23, 0x94	; 148
     6c0:	6d 65       	ori	r22, 0x5D	; 93
     6c2:	2c 20       	and	r2, r12
     6c4:	f1 00       	.word	0x00f1	; ????
     6c6:	53 65       	ori	r21, 0x53	; 83
     6c8:	6c 66       	ori	r22, 0x6C	; 108
     6ca:	20 74       	andi	r18, 0x40	; 64
     6cc:	72 61       	ori	r23, 0x12	; 18
     6ce:	6e 73       	andi	r22, 0x3E	; 62
     6d0:	6d 69       	ori	r22, 0x9D	; 157
     6d2:	74 00       	.word	0x0074	; ????
     6d4:	4e 65       	ori	r20, 0x5E	; 94
     6d6:	74 77       	andi	r23, 0x74	; 116
     6d8:	6f 72       	andi	r22, 0x2F	; 47
     6da:	6b 20       	and	r6, r11
     6dc:	6d 6f       	ori	r22, 0xFD	; 253
     6de:	64 65       	ori	r22, 0x54	; 84
     6e0:	20 00       	.word	0x0020	; ????
     6e2:	42 61       	ori	r20, 0x12	; 18
     6e4:	75 64       	ori	r23, 0x45	; 69
     6e6:	72 61       	ori	r23, 0x12	; 18
     6e8:	74 65       	ori	r23, 0x54	; 84
     6ea:	00 49       	sbci	r16, 0x90	; 144
     6ec:	44 00       	.word	0x0044	; ????
     6ee:	5b 20       	and	r5, r11
     6f0:	20 20       	and	r2, r0
     6f2:	20 20       	and	r2, r0
     6f4:	20 53       	subi	r18, 0x30	; 48
     6f6:	65 74       	andi	r22, 0x45	; 69
     6f8:	74 69       	ori	r23, 0x94	; 148
     6fa:	6e 67       	ori	r22, 0x7E	; 126
     6fc:	73 20       	and	r7, r3
     6fe:	20 20       	and	r2, r0
     700:	20 20       	and	r2, r0
     702:	20 5d       	subi	r18, 0xD0	; 208
     704:	00 20       	and	r0, r0
     706:	20 20       	and	r2, r0
     708:	6e 6f       	ori	r22, 0xFE	; 254
     70a:	20 63       	ori	r18, 0x30	; 48
     70c:	6f 6e       	ori	r22, 0xEF	; 239
     70e:	6e 65       	ori	r22, 0x5E	; 94
     710:	63 74       	andi	r22, 0x43	; 67
     712:	69 6f       	ori	r22, 0xF9	; 249
     714:	6e 00       	.word	0x006e	; ????
     716:	54 45       	sbci	r21, 0x54	; 84
     718:	58 54       	subi	r21, 0x48	; 72
     71a:	00 42       	sbci	r16, 0x20	; 32
     71c:	49 4e       	sbci	r20, 0xE9	; 233
     71e:	00 4f       	sbci	r16, 0xF0	; 240
     720:	46 46       	sbci	r20, 0x66	; 102
     722:	20 00       	.word	0x0020	; ????
     724:	4f 4e       	sbci	r20, 0xEF	; 239
     726:	20 00       	.word	0x0020	; ????
     728:	49 2c       	mov	r4, r9
     72a:	20 6d       	ori	r18, 0xD0	; 208
     72c:	c0 00       	.word	0x00c0	; ????
     72e:	45 78       	andi	r20, 0x85	; 133
     730:	69 74       	andi	r22, 0x49	; 73
     732:	20 00       	.word	0x0020	; ????
     734:	43 6f       	ori	r20, 0xF3	; 243
     736:	6e 6e       	ori	r22, 0xEE	; 238
     738:	65 63       	ori	r22, 0x35	; 53
     73a:	74 69       	ori	r23, 0x94	; 148
     73c:	6f 6e       	ori	r22, 0xEF	; 239
     73e:	20 20       	and	r2, r0
     740:	2e 2e       	mov	r2, r30
     742:	2e 00       	.word	0x002e	; ????
     744:	41 76       	andi	r20, 0x61	; 97
     746:	65 72       	andi	r22, 0x25	; 37
     748:	61 67       	ori	r22, 0x71	; 113
     74a:	65 20       	and	r6, r5
     74c:	20 20       	and	r2, r0
     74e:	00 4e       	sbci	r16, 0xE0	; 224
     750:	6d 61       	ori	r22, 0x1D	; 29
     752:	78 00       	.word	0x0078	; ????
     754:	46 75       	andi	r20, 0x56	; 86
     756:	6c 6c       	ori	r22, 0xCC	; 204
     758:	20 74       	andi	r18, 0x40	; 64
     75a:	61 6e       	ori	r22, 0xE1	; 225
     75c:	6b 00       	.word	0x006b	; ????
     75e:	45 6d       	ori	r20, 0xD5	; 213
     760:	70 74       	andi	r23, 0x40	; 64
     762:	79 20       	and	r7, r9
     764:	74 61       	ori	r23, 0x14	; 20
     766:	6e 6b       	ori	r22, 0xBE	; 190
     768:	00 20       	and	r0, r0
     76a:	20 20       	and	r2, r0
     76c:	20 45       	sbci	r18, 0x50	; 80
     76e:	64 69       	ori	r22, 0x94	; 148
     770:	74 20       	and	r7, r4
     772:	73 65       	ori	r23, 0x53	; 83
     774:	74 74       	andi	r23, 0x44	; 68
     776:	69 6e       	ori	r22, 0xE9	; 233
     778:	67 73       	andi	r22, 0x37	; 55
     77a:	20 00       	.word	0x0020	; ????
     77c:	45 72       	andi	r20, 0x25	; 37
     77e:	72 6f       	ori	r23, 0xF2	; 242
     780:	72 20       	and	r7, r2
     782:	00 46       	sbci	r16, 0x60	; 96
     784:	72 65       	ori	r23, 0x52	; 82
     786:	71 75       	andi	r23, 0x51	; 81
     788:	65 6e       	ori	r22, 0xE5	; 229
     78a:	63 79       	andi	r22, 0x93	; 147
     78c:	00 4c       	sbci	r16, 0xC0	; 192
     78e:	65 76       	andi	r22, 0x65	; 101
     790:	65 6c       	ori	r22, 0xC5	; 197
     792:	2c 20       	and	r2, r12
     794:	20 20       	and	r2, r0
     796:	4e 00       	.word	0x004e	; ????
     798:	4c 65       	ori	r20, 0x5C	; 92
     79a:	76 65       	ori	r23, 0x56	; 86
     79c:	6c 2c       	mov	r6, r12
     79e:	20 20       	and	r2, r0
     7a0:	20 25       	eor	r18, r0
     7a2:	00 5b       	subi	r16, 0xB0	; 176
     7a4:	20 20       	and	r2, r0
     7a6:	20 20       	and	r2, r0
     7a8:	20 52       	subi	r18, 0x20	; 32
     7aa:	53 32       	cpi	r21, 0x23	; 35
     7ac:	33 32       	cpi	r19, 0x23	; 35
     7ae:	20 6f       	ori	r18, 0xF0	; 240
     7b0:	75 74       	andi	r23, 0x45	; 69
     7b2:	70 75       	andi	r23, 0x50	; 80
     7b4:	74 20       	and	r7, r4
     7b6:	20 20       	and	r2, r0
     7b8:	5d 00       	.word	0x005d	; ????
     7ba:	20 45       	sbci	r18, 0x50	; 80
     7bc:	78 69       	ori	r23, 0x98	; 152
     7be:	74 20       	and	r7, r4
     7c0:	20 20       	and	r2, r0
     7c2:	20 20       	and	r2, r0
     7c4:	20 20       	and	r2, r0
     7c6:	53 65       	ori	r21, 0x53	; 83
     7c8:	74 74       	andi	r23, 0x44	; 68
     7ca:	69 6e       	ori	r22, 0xE9	; 233
     7cc:	67 73       	andi	r22, 0x37	; 55
     7ce:	20 00       	.word	0x0020	; ????
     7d0:	20 20       	and	r2, r0
     7d2:	20 20       	and	r2, r0
     7d4:	20 20       	and	r2, r0
     7d6:	53 77       	andi	r21, 0x73	; 115
     7d8:	69 74       	andi	r22, 0x49	; 73
     7da:	63 68       	ori	r22, 0x83	; 131
     7dc:	20 6f       	ori	r18, 0xF0	; 240
     7de:	66 66       	ori	r22, 0x66	; 102
     7e0:	00 52       	subi	r16, 0x20	; 32
     7e2:	53 2d       	mov	r21, r3
     7e4:	34 38       	cpi	r19, 0x84	; 132
     7e6:	35 00       	.word	0x0035	; ????
     7e8:	52 53       	subi	r21, 0x32	; 50
     7ea:	2d 32       	cpi	r18, 0x2D	; 45
     7ec:	33 32       	cpi	r19, 0x23	; 35
     7ee:	00 41       	sbci	r16, 0x10	; 16
     7f0:	6e 61       	ori	r22, 0x1E	; 30
     7f2:	6c 6f       	ori	r22, 0xFC	; 252
     7f4:	67 20       	and	r6, r7
     7f6:	20 20       	and	r2, r0
     7f8:	20 00       	.word	0x0020	; ????
     7fa:	5b 20       	and	r5, r11
     7fc:	20 20       	and	r2, r0
     7fe:	20 20       	and	r2, r0
     800:	53 65       	ori	r21, 0x53	; 83
     802:	6e 73       	andi	r22, 0x3E	; 62
     804:	6f 72       	andi	r22, 0x2F	; 47
     806:	20 74       	andi	r18, 0x40	; 64
     808:	79 70       	andi	r23, 0x09	; 9
     80a:	65 20       	and	r6, r5
     80c:	20 20       	and	r2, r0
     80e:	20 5d       	subi	r18, 0xD0	; 208
     810:	00 00       	nop
     812:	20 20       	and	r2, r0
     814:	45 72       	andi	r20, 0x25	; 37
     816:	72 6f       	ori	r23, 0xF2	; 242
     818:	72 20       	and	r7, r2
     81a:	63 61       	ori	r22, 0x13	; 19
     81c:	6c 69       	ori	r22, 0x9C	; 156
     81e:	62 72       	andi	r22, 0x22	; 34
     820:	61 74       	andi	r22, 0x41	; 65
     822:	69 6f       	ori	r22, 0xF9	; 249
     824:	6e 21       	and	r22, r14
     826:	00 43       	sbci	r16, 0x30	; 48
     828:	68 65       	ori	r22, 0x58	; 88
     82a:	63 6b       	ori	r22, 0xB3	; 179
     82c:	20 63       	ori	r18, 0x30	; 48
     82e:	61 6c       	ori	r22, 0xC1	; 193
     830:	69 62       	ori	r22, 0x29	; 41
     832:	72 61       	ori	r23, 0x12	; 18
     834:	74 69       	ori	r23, 0x94	; 148
     836:	6f 6e       	ori	r22, 0xEF	; 239
     838:	2e 2e       	mov	r2, r30
     83a:	2e 00       	.word	0x002e	; ????
     83c:	20 d1       	rcall	.+576    	;  0xa7e
     83e:	61 6c       	ori	r22, 0xC1	; 193
     840:	69 62       	ori	r22, 0x29	; 41
     842:	72 61       	ori	r23, 0x12	; 18
     844:	74 69       	ori	r23, 0x94	; 148
     846:	6f 6e       	ori	r22, 0xEF	; 239
     848:	20 63       	ori	r18, 0x30	; 48
     84a:	6f 6d       	ori	r22, 0xDF	; 223
     84c:	70 6c       	ori	r23, 0xC0	; 192
     84e:	65 74       	andi	r22, 0x45	; 69
     850:	65 00       	.word	0x0065	; ????
     852:	20 20       	and	r2, r0
     854:	43 61       	ori	r20, 0x13	; 19
     856:	6c 69       	ori	r22, 0x9C	; 156
     858:	62 72       	andi	r22, 0x22	; 34
     85a:	61 74       	andi	r22, 0x41	; 65
     85c:	69 6e       	ori	r22, 0xE9	; 233
     85e:	67 20       	and	r6, r7
     860:	2e 2e       	mov	r2, r30
     862:	2e 20       	and	r2, r14
     864:	20 20       	and	r2, r0
     866:	00 20       	and	r0, r0
     868:	43 6f       	ori	r20, 0xF3	; 243
     86a:	6e 6e       	ori	r22, 0xEE	; 238
     86c:	65 63       	ori	r22, 0x35	; 53
     86e:	74 20       	and	r7, r4
     870:	70 72       	andi	r23, 0x20	; 32
     872:	6f 62       	ori	r22, 0x2F	; 47
     874:	65 20       	and	r6, r5
     876:	20 20       	and	r2, r0
     878:	20 20       	and	r2, r0
     87a:	20 20       	and	r2, r0
     87c:	00 20       	and	r0, r0
     87e:	44 69       	ori	r20, 0x94	; 148
     880:	73 63       	ori	r23, 0x33	; 51
     882:	6f 6e       	ori	r22, 0xEF	; 239
     884:	6e 65       	ori	r22, 0x5E	; 94
     886:	63 74       	andi	r22, 0x43	; 67
     888:	20 70       	andi	r18, 0x00	; 0
     88a:	72 6f       	ori	r23, 0xF2	; 242
     88c:	62 65       	ori	r22, 0x52	; 82
     88e:	20 20       	and	r2, r0
     890:	20 20       	and	r2, r0
     892:	00 31       	cpi	r16, 0x10	; 16
     894:	2e 30       	cpi	r18, 0x0E	; 14
     896:	2e 39       	cpi	r18, 0x9E	; 158
     898:	00 56       	subi	r16, 0x60	; 96
     89a:	65 72       	andi	r22, 0x25	; 37
     89c:	73 69       	ori	r23, 0x93	; 147
     89e:	6f 6e       	ori	r22, 0xEF	; 239
     8a0:	20 20       	and	r2, r0
     8a2:	3a 00       	.word	0x003a	; ????
     8a4:	43 61       	ori	r20, 0x13	; 19
     8a6:	6c 69       	ori	r22, 0x9C	; 156
     8a8:	62 72       	andi	r22, 0x22	; 34
     8aa:	61 74       	andi	r22, 0x41	; 65
     8ac:	6f 72       	andi	r22, 0x2F	; 47
     8ae:	20 33       	cpi	r18, 0x30	; 48
     8b0:	00 00       	nop
     8b2:	11 24       	eor	r1, r1
     8b4:	1f be       	out	0x3f, r1	; 63
     8b6:	cf ef       	ldi	r28, 0xFF	; 255
     8b8:	d4 e0       	ldi	r29, 0x04	; 4
     8ba:	de bf       	out	0x3e, r29	; 62
     8bc:	cd bf       	out	0x3d, r28	; 61
     8be:	11 e0       	ldi	r17, 0x01	; 1
     8c0:	a0 e0       	ldi	r26, 0x00	; 0
     8c2:	b1 e0       	ldi	r27, 0x01	; 1
     8c4:	ec ec       	ldi	r30, 0xCC	; 204
     8c6:	f9 e3       	ldi	r31, 0x39	; 57
     8c8:	02 c0       	rjmp	.+4      	;  0x8ce
     8ca:	05 90       	lpm	r0, Z+
     8cc:	0d 92       	st	X+, r0
     8ce:	a0 33       	cpi	r26, 0x30	; 48
     8d0:	b1 07       	cpc	r27, r17
     8d2:	d9 f7       	brne	.-10     	;  0x8ca
     8d4:	23 e0       	ldi	r18, 0x03	; 3
     8d6:	a0 e3       	ldi	r26, 0x30	; 48
     8d8:	b1 e0       	ldi	r27, 0x01	; 1
     8da:	01 c0       	rjmp	.+2      	;  0x8de
     8dc:	1d 92       	st	X+, r1
     8de:	ac 30       	cpi	r26, 0x0C	; 12
     8e0:	b2 07       	cpc	r27, r18
     8e2:	e1 f7       	brne	.-8      	;  0x8dc
     8e4:	0e 94 a4 19 	call	0x3348	;  0x3348
     8e8:	0c 94 e4 1c 	jmp	0x39c8	;  0x39c8
     8ec:	89 cb       	rjmp	.-2286   	;  0x0
     8ee:	88 30       	cpi	r24, 0x08	; 8
     8f0:	58 f4       	brcc	.+22     	;  0x908
     8f2:	90 91 7c 00 	lds	r25, 0x007C	;  0x80007c
     8f6:	98 7f       	andi	r25, 0xF8	; 248
     8f8:	89 2b       	or	r24, r25
     8fa:	80 93 7c 00 	sts	0x007C, r24	;  0x80007c
     8fe:	80 91 7a 00 	lds	r24, 0x007A	;  0x80007a
     902:	80 64       	ori	r24, 0x40	; 64
     904:	80 93 7a 00 	sts	0x007A, r24	;  0x80007a
     908:	08 95       	ret
     90a:	cf 93       	push	r28
     90c:	80 91 7a 00 	lds	r24, 0x007A	;  0x80007a
     910:	86 fd       	sbrc	r24, 6
     912:	31 c0       	rjmp	.+98     	;  0x976
     914:	e0 91 30 01 	lds	r30, 0x0130	;  0x800130
     918:	f0 91 31 01 	lds	r31, 0x0131	;  0x800131
     91c:	30 97       	sbiw	r30, 0x00	; 0
     91e:	59 f1       	breq	.+86     	;  0x976
     920:	80 91 32 01 	lds	r24, 0x0132	;  0x800132
     924:	86 30       	cpi	r24, 0x06	; 6
     926:	a1 f0       	breq	.+40     	;  0x950
     928:	87 30       	cpi	r24, 0x07	; 7
     92a:	51 f0       	breq	.+20     	;  0x940
     92c:	81 30       	cpi	r24, 0x01	; 1
     92e:	d9 f4       	brne	.+54     	;  0x966
     930:	80 91 78 00 	lds	r24, 0x0078	;  0x800078
     934:	90 91 79 00 	lds	r25, 0x0079	;  0x800079
     938:	93 83       	std	Z+3, r25	; 0x03
     93a:	82 83       	std	Z+2, r24	; 0x02
     93c:	86 e0       	ldi	r24, 0x06	; 6
     93e:	14 c0       	rjmp	.+40     	;  0x968
     940:	80 91 78 00 	lds	r24, 0x0078	;  0x800078
     944:	90 91 79 00 	lds	r25, 0x0079	;  0x800079
     948:	91 83       	std	Z+1, r25	; 0x01
     94a:	80 83       	st	Z, r24
     94c:	81 e0       	ldi	r24, 0x01	; 1
     94e:	0c c0       	rjmp	.+24     	;  0x968
     950:	80 91 78 00 	lds	r24, 0x0078	;  0x800078
     954:	90 91 79 00 	lds	r25, 0x0079	;  0x800079
     958:	95 83       	std	Z+5, r25	; 0x05
     95a:	84 83       	std	Z+4, r24	; 0x04
     95c:	87 e0       	ldi	r24, 0x07	; 7
     95e:	80 93 32 01 	sts	0x0132, r24	;  0x800132
     962:	c1 e0       	ldi	r28, 0x01	; 1
     964:	04 c0       	rjmp	.+8      	;  0x96e
     966:	87 e0       	ldi	r24, 0x07	; 7
     968:	80 93 32 01 	sts	0x0132, r24	;  0x800132
     96c:	c0 e0       	ldi	r28, 0x00	; 0
     96e:	80 91 32 01 	lds	r24, 0x0132	;  0x800132
     972:	bd df       	rcall	.-134    	;  0x8ee
     974:	01 c0       	rjmp	.+2      	;  0x978
     976:	c0 e0       	ldi	r28, 0x00	; 0
     978:	8c 2f       	mov	r24, r28
     97a:	cf 91       	pop	r28
     97c:	08 95       	ret
     97e:	90 93 31 01 	sts	0x0131, r25	;  0x800131
     982:	80 93 30 01 	sts	0x0130, r24	;  0x800130
     986:	10 92 32 01 	sts	0x0132, r1	;  0x800132
     98a:	10 92 7c 00 	sts	0x007C, r1	;  0x80007c
     98e:	87 e8       	ldi	r24, 0x87	; 135
     990:	80 93 7a 00 	sts	0x007A, r24	;  0x80007a
     994:	08 95       	ret
     996:	bc 01       	movw	r22, r24
     998:	80 e0       	ldi	r24, 0x00	; 0
     99a:	90 e0       	ldi	r25, 0x00	; 0
     99c:	0e 94 c7 1a 	call	0x358e	;  0x358e
     9a0:	22 e1       	ldi	r18, 0x12	; 18
     9a2:	33 e8       	ldi	r19, 0x83	; 131
     9a4:	40 e8       	ldi	r20, 0x80	; 128
     9a6:	5f e3       	ldi	r21, 0x3F	; 63
     9a8:	0e 94 55 1b 	call	0x36aa	;  0x36aa
     9ac:	0e 94 9b 1a 	call	0x3536	;  0x3536
     9b0:	cb 01       	movw	r24, r22
     9b2:	08 95       	ret
     9b4:	bc 01       	movw	r22, r24
     9b6:	80 e0       	ldi	r24, 0x00	; 0
     9b8:	90 e0       	ldi	r25, 0x00	; 0
     9ba:	0e 94 c7 1a 	call	0x358e	;  0x358e
     9be:	21 e0       	ldi	r18, 0x01	; 1
     9c0:	30 e0       	ldi	r19, 0x00	; 0
     9c2:	40 e8       	ldi	r20, 0x80	; 128
     9c4:	5d e3       	ldi	r21, 0x3D	; 61
     9c6:	0e 94 55 1b 	call	0x36aa	;  0x36aa
     9ca:	20 e0       	ldi	r18, 0x00	; 0
     9cc:	30 e0       	ldi	r19, 0x00	; 0
     9ce:	40 e0       	ldi	r20, 0x00	; 0
     9d0:	5f e3       	ldi	r21, 0x3F	; 63
     9d2:	0e 94 37 1a 	call	0x346e	;  0x346e
     9d6:	0e 94 9b 1a 	call	0x3536	;  0x3536
     9da:	cb 01       	movw	r24, r22
     9dc:	08 95       	ret
     9de:	87 df       	rcall	.-242    	;  0x8ee
     9e0:	80 91 7a 00 	lds	r24, 0x007A	;  0x80007a
     9e4:	86 fd       	sbrc	r24, 6
     9e6:	fc cf       	rjmp	.-8      	;  0x9e0
     9e8:	80 91 78 00 	lds	r24, 0x0078	;  0x800078
     9ec:	90 91 79 00 	lds	r25, 0x0079	;  0x800079
     9f0:	08 95       	ret
     9f2:	10 92 31 01 	sts	0x0131, r1	;  0x800131
     9f6:	10 92 30 01 	sts	0x0130, r1	;  0x800130
     9fa:	ec e7       	ldi	r30, 0x7C	; 124
     9fc:	f0 e0       	ldi	r31, 0x00	; 0
     9fe:	80 81       	ld	r24, Z
     a00:	88 7f       	andi	r24, 0xF8	; 248
     a02:	80 83       	st	Z, r24
     a04:	10 92 7a 00 	sts	0x007A, r1	;  0x80007a
     a08:	08 95       	ret
     a0a:	80 e7       	ldi	r24, 0x70	; 112
     a0c:	86 bd       	out	0x26, r24	; 38
     a0e:	89 b1       	in	r24, 0x09	; 9
     a10:	90 91 38 01 	lds	r25, 0x0138	;  0x800138
     a14:	80 95       	com	r24
     a16:	28 2f       	mov	r18, r24
     a18:	29 27       	eor	r18, r25
     a1a:	90 91 35 01 	lds	r25, 0x0135	;  0x800135
     a1e:	92 23       	and	r25, r18
     a20:	89 2f       	mov	r24, r25
     a22:	80 95       	com	r24
     a24:	80 93 35 01 	sts	0x0135, r24	;  0x800135
     a28:	90 91 34 01 	lds	r25, 0x0134	;  0x800134
     a2c:	92 23       	and	r25, r18
     a2e:	98 27       	eor	r25, r24
     a30:	90 93 34 01 	sts	0x0134, r25	;  0x800134
     a34:	82 23       	and	r24, r18
     a36:	89 23       	and	r24, r25
     a38:	90 91 38 01 	lds	r25, 0x0138	;  0x800138
     a3c:	98 27       	eor	r25, r24
     a3e:	90 93 38 01 	sts	0x0138, r25	;  0x800138
     a42:	20 91 38 01 	lds	r18, 0x0138	;  0x800138
     a46:	90 91 37 01 	lds	r25, 0x0137	;  0x800137
     a4a:	82 23       	and	r24, r18
     a4c:	89 2b       	or	r24, r25
     a4e:	80 93 37 01 	sts	0x0137, r24	;  0x800137
     a52:	80 91 38 01 	lds	r24, 0x0138	;  0x800138
     a56:	83 fd       	sbrc	r24, 3
     a58:	03 c0       	rjmp	.+6      	;  0xa60
     a5a:	82 e3       	ldi	r24, 0x32	; 50
     a5c:	80 93 33 01 	sts	0x0133, r24	;  0x800133
     a60:	80 91 33 01 	lds	r24, 0x0133	;  0x800133
     a64:	81 50       	subi	r24, 0x01	; 1
     a66:	80 93 33 01 	sts	0x0133, r24	;  0x800133
     a6a:	81 11       	cpse	r24, r1
     a6c:	0b c0       	rjmp	.+22     	;  0xa84
     a6e:	84 e1       	ldi	r24, 0x14	; 20
     a70:	80 93 33 01 	sts	0x0133, r24	;  0x800133
     a74:	80 91 38 01 	lds	r24, 0x0138	;  0x800138
     a78:	90 91 36 01 	lds	r25, 0x0136	;  0x800136
     a7c:	88 70       	andi	r24, 0x08	; 8
     a7e:	89 2b       	or	r24, r25
     a80:	80 93 36 01 	sts	0x0136, r24	;  0x800136
     a84:	08 95       	ret
     a86:	f8 94       	cli
     a88:	90 91 37 01 	lds	r25, 0x0137	;  0x800137
     a8c:	89 23       	and	r24, r25
     a8e:	90 91 37 01 	lds	r25, 0x0137	;  0x800137
     a92:	98 27       	eor	r25, r24
     a94:	90 93 37 01 	sts	0x0137, r25	;  0x800137
     a98:	78 94       	sei
     a9a:	08 95       	ret
     a9c:	f8 94       	cli
     a9e:	90 91 36 01 	lds	r25, 0x0136	;  0x800136
     aa2:	89 23       	and	r24, r25
     aa4:	90 91 36 01 	lds	r25, 0x0136	;  0x800136
     aa8:	98 27       	eor	r25, r24
     aaa:	90 93 36 01 	sts	0x0136, r25	;  0x800136
     aae:	78 94       	sei
     ab0:	08 95       	ret
     ab2:	f8 94       	cli
     ab4:	90 91 38 01 	lds	r25, 0x0138	;  0x800138
     ab8:	90 95       	com	r25
     aba:	89 23       	and	r24, r25
     abc:	e4 cf       	rjmp	.-56     	;  0xa86
     abe:	08 95       	ret
     ac0:	ed df       	rcall	.-38     	;  0xa9c
     ac2:	e1 cf       	rjmp	.-62     	;  0xa86
     ac4:	08 95       	ret
     ac6:	90 91 37 01 	lds	r25, 0x0137	;  0x800137
     aca:	90 95       	com	r25
     acc:	89 23       	and	r24, r25
     ace:	e6 cf       	rjmp	.-52     	;  0xa9c
     ad0:	08 95       	ret
     ad2:	53 98       	cbi	0x0a, 3	; 10
     ad4:	5b 9a       	sbi	0x0b, 3	; 11
     ad6:	14 bc       	out	0x24, r1	; 36
     ad8:	85 e0       	ldi	r24, 0x05	; 5
     ada:	85 bd       	out	0x25, r24	; 37
     adc:	ee e6       	ldi	r30, 0x6E	; 110
     ade:	f0 e0       	ldi	r31, 0x00	; 0
     ae0:	80 81       	ld	r24, Z
     ae2:	81 60       	ori	r24, 0x01	; 1
     ae4:	80 83       	st	Z, r24
     ae6:	10 92 35 01 	sts	0x0135, r1	;  0x800135
     aea:	10 92 34 01 	sts	0x0134, r1	;  0x800134
     aee:	10 92 33 01 	sts	0x0133, r1	;  0x800133
     af2:	08 95       	ret
     af4:	fc 01       	movw	r30, r24
     af6:	62 83       	std	Z+2, r22	; 0x02
     af8:	55 83       	std	Z+5, r21	; 0x05
     afa:	44 83       	std	Z+4, r20	; 0x04
     afc:	31 83       	std	Z+1, r19	; 0x01
     afe:	20 83       	st	Z, r18
     b00:	13 82       	std	Z+3, r1	; 0x03
     b02:	08 95       	ret
     b04:	fc 01       	movw	r30, r24
     b06:	62 83       	std	Z+2, r22	; 0x02
     b08:	08 95       	ret
     b0a:	fc 01       	movw	r30, r24
     b0c:	63 83       	std	Z+3, r22	; 0x03
     b0e:	08 95       	ret
     b10:	9c 01       	movw	r18, r24
     b12:	22 9a       	sbi	0x04, 2	; 4
     b14:	82 e0       	ldi	r24, 0x02	; 2
     b16:	80 93 b0 00 	sts	0x00B0, r24	;  0x8000b0
     b1a:	85 e0       	ldi	r24, 0x05	; 5
     b1c:	80 93 b1 00 	sts	0x00B1, r24	;  0x8000b1
     b20:	e0 e7       	ldi	r30, 0x70	; 112
     b22:	f0 e0       	ldi	r31, 0x00	; 0
     b24:	80 81       	ld	r24, Z
     b26:	82 60       	ori	r24, 0x02	; 2
     b28:	80 83       	st	Z, r24
     b2a:	c9 01       	movw	r24, r18
     b2c:	a0 e0       	ldi	r26, 0x00	; 0
     b2e:	b0 e0       	ldi	r27, 0x00	; 0
     b30:	22 27       	eor	r18, r18
     b32:	38 2f       	mov	r19, r24
     b34:	49 2f       	mov	r20, r25
     b36:	5a 2f       	mov	r21, r26
     b38:	60 e0       	ldi	r22, 0x00	; 0
     b3a:	70 e0       	ldi	r23, 0x00	; 0
     b3c:	81 ee       	ldi	r24, 0xE1	; 225
     b3e:	90 e0       	ldi	r25, 0x00	; 0
     b40:	0e 94 cc 1b 	call	0x3798	;  0x3798
     b44:	21 50       	subi	r18, 0x01	; 1
     b46:	20 93 b3 00 	sts	0x00B3, r18	;  0x8000b3
     b4a:	08 95       	ret
     b4c:	2a 98       	cbi	0x05, 2	; 5
     b4e:	10 92 b0 00 	sts	0x00B0, r1	;  0x8000b0
     b52:	10 92 b1 00 	sts	0x00B1, r1	;  0x8000b1
     b56:	e0 e7       	ldi	r30, 0x70	; 112
     b58:	f0 e0       	ldi	r31, 0x00	; 0
     b5a:	80 81       	ld	r24, Z
     b5c:	8d 7f       	andi	r24, 0xFD	; 253
     b5e:	80 83       	st	Z, r24
     b60:	08 95       	ret
     b62:	1a 9a       	sbi	0x03, 2	; 3
     b64:	18 95       	reti
     b66:	10 92 80 00 	sts	0x0080, r1	;  0x800080
     b6a:	e1 e8       	ldi	r30, 0x81	; 129
     b6c:	f0 e0       	ldi	r31, 0x00	; 0
     b6e:	10 82       	st	Z, r1
     b70:	10 92 78 02 	sts	0x0278, r1	;  0x800278
     b74:	10 92 77 02 	sts	0x0277, r1	;  0x800277
     b78:	81 e4       	ldi	r24, 0x41	; 65
     b7a:	80 83       	st	Z, r24
     b7c:	80 81       	ld	r24, Z
     b7e:	80 68       	ori	r24, 0x80	; 128
     b80:	80 83       	st	Z, r24
     b82:	ef e6       	ldi	r30, 0x6F	; 111
     b84:	f0 e0       	ldi	r31, 0x00	; 0
     b86:	80 81       	ld	r24, Z
     b88:	81 62       	ori	r24, 0x21	; 33
     b8a:	80 83       	st	Z, r24
     b8c:	08 95       	ret
     b8e:	10 92 80 00 	sts	0x0080, r1	;  0x800080
     b92:	10 92 81 00 	sts	0x0081, r1	;  0x800081
     b96:	ef e6       	ldi	r30, 0x6F	; 111
     b98:	f0 e0       	ldi	r31, 0x00	; 0
     b9a:	80 81       	ld	r24, Z
     b9c:	81 72       	andi	r24, 0x21	; 33
     b9e:	80 83       	st	Z, r24
     ba0:	08 95       	ret
     ba2:	80 91 7b 02 	lds	r24, 0x027B	;  0x80027b
     ba6:	90 91 7c 02 	lds	r25, 0x027C	;  0x80027c
     baa:	89 2b       	or	r24, r25
     bac:	d9 f0       	breq	.+54     	;  0xbe4
     bae:	60 91 7b 02 	lds	r22, 0x027B	;  0x80027b
     bb2:	70 91 7c 02 	lds	r23, 0x027C	;  0x80027c
     bb6:	20 91 79 02 	lds	r18, 0x0279	;  0x800279
     bba:	30 91 7a 02 	lds	r19, 0x027A	;  0x80027a
     bbe:	cb 01       	movw	r24, r22
     bc0:	a0 e0       	ldi	r26, 0x00	; 0
     bc2:	b0 e0       	ldi	r27, 0x00	; 0
     bc4:	dc 01       	movw	r26, r24
     bc6:	99 27       	eor	r25, r25
     bc8:	88 27       	eor	r24, r24
     bca:	bc 01       	movw	r22, r24
     bcc:	cd 01       	movw	r24, r26
     bce:	62 0f       	add	r22, r18
     bd0:	73 1f       	adc	r23, r19
     bd2:	81 1d       	adc	r24, r1
     bd4:	91 1d       	adc	r25, r1
     bd6:	21 e4       	ldi	r18, 0x41	; 65
     bd8:	30 e0       	ldi	r19, 0x00	; 0
     bda:	40 e0       	ldi	r20, 0x00	; 0
     bdc:	50 e0       	ldi	r21, 0x00	; 0
     bde:	0e 94 cc 1b 	call	0x3798	;  0x3798
     be2:	0b c0       	rjmp	.+22     	;  0xbfa
     be4:	80 91 79 02 	lds	r24, 0x0279	;  0x800279
     be8:	90 91 7a 02 	lds	r25, 0x027A	;  0x80027a
     bec:	61 e4       	ldi	r22, 0x41	; 65
     bee:	70 e0       	ldi	r23, 0x00	; 0
     bf0:	0e 94 b8 1b 	call	0x3770	;  0x3770
     bf4:	9b 01       	movw	r18, r22
     bf6:	40 e0       	ldi	r20, 0x00	; 0
     bf8:	50 e0       	ldi	r21, 0x00	; 0
     bfa:	60 e0       	ldi	r22, 0x00	; 0
     bfc:	70 e0       	ldi	r23, 0x00	; 0
     bfe:	8a ec       	ldi	r24, 0xCA	; 202
     c00:	98 e0       	ldi	r25, 0x08	; 8
     c02:	0e 94 cc 1b 	call	0x3798	;  0x3798
     c06:	c9 01       	movw	r24, r18
     c08:	08 95       	ret
     c0a:	1f 92       	push	r1
     c0c:	0f 92       	push	r0
     c0e:	0f b6       	in	r0, 0x3f	; 63
     c10:	0f 92       	push	r0
     c12:	11 24       	eor	r1, r1
     c14:	2f 93       	push	r18
     c16:	3f 93       	push	r19
     c18:	8f 93       	push	r24
     c1a:	9f 93       	push	r25
     c1c:	20 91 86 00 	lds	r18, 0x0086	;  0x800086
     c20:	30 91 87 00 	lds	r19, 0x0087	;  0x800087
     c24:	80 91 77 02 	lds	r24, 0x0277	;  0x800277
     c28:	91 e0       	ldi	r25, 0x01	; 1
     c2a:	98 0f       	add	r25, r24
     c2c:	90 93 77 02 	sts	0x0277, r25	;  0x800277
     c30:	80 34       	cpi	r24, 0x40	; 64
     c32:	98 f0       	brcs	.+38     	;  0xc5a
     c34:	30 93 7a 02 	sts	0x027A, r19	;  0x80027a
     c38:	20 93 79 02 	sts	0x0279, r18	;  0x800279
     c3c:	80 91 78 02 	lds	r24, 0x0278	;  0x800278
     c40:	90 e0       	ldi	r25, 0x00	; 0
     c42:	90 93 7c 02 	sts	0x027C, r25	;  0x80027c
     c46:	80 93 7b 02 	sts	0x027B, r24	;  0x80027b
     c4a:	10 92 78 02 	sts	0x0278, r1	;  0x800278
     c4e:	10 92 77 02 	sts	0x0277, r1	;  0x800277
     c52:	10 92 85 00 	sts	0x0085, r1	;  0x800085
     c56:	10 92 84 00 	sts	0x0084, r1	;  0x800084
     c5a:	9f 91       	pop	r25
     c5c:	8f 91       	pop	r24
     c5e:	3f 91       	pop	r19
     c60:	2f 91       	pop	r18
     c62:	0f 90       	pop	r0
     c64:	0f be       	out	0x3f, r0	; 63
     c66:	0f 90       	pop	r0
     c68:	1f 90       	pop	r1
     c6a:	18 95       	reti
     c6c:	1f 92       	push	r1
     c6e:	0f 92       	push	r0
     c70:	0f b6       	in	r0, 0x3f	; 63
     c72:	0f 92       	push	r0
     c74:	11 24       	eor	r1, r1
     c76:	8f 93       	push	r24
     c78:	80 91 78 02 	lds	r24, 0x0278	;  0x800278
     c7c:	8f 5f       	subi	r24, 0xFF	; 255
     c7e:	80 93 78 02 	sts	0x0278, r24	;  0x800278
     c82:	80 91 78 02 	lds	r24, 0x0278	;  0x800278
     c86:	8f 3f       	cpi	r24, 0xFF	; 255
     c88:	41 f4       	brne	.+16     	;  0xc9a
     c8a:	10 92 7c 02 	sts	0x027C, r1	;  0x80027c
     c8e:	10 92 7b 02 	sts	0x027B, r1	;  0x80027b
     c92:	10 92 7a 02 	sts	0x027A, r1	;  0x80027a
     c96:	10 92 79 02 	sts	0x0279, r1	;  0x800279
     c9a:	8f 91       	pop	r24
     c9c:	0f 90       	pop	r0
     c9e:	0f be       	out	0x3f, r0	; 63
     ca0:	0f 90       	pop	r0
     ca2:	1f 90       	pop	r1
     ca4:	18 95       	reti
     ca6:	10 92 b9 00 	sts	0x00B9, r1	;  0x8000b9
     caa:	8a e0       	ldi	r24, 0x0A	; 10
     cac:	80 93 b8 00 	sts	0x00B8, r24	;  0x8000b8
     cb0:	84 e0       	ldi	r24, 0x04	; 4
     cb2:	80 93 bc 00 	sts	0x00BC, r24	;  0x8000bc
     cb6:	08 95       	ret
     cb8:	ec eb       	ldi	r30, 0xBC	; 188
     cba:	f0 e0       	ldi	r31, 0x00	; 0
     cbc:	80 81       	ld	r24, Z
     cbe:	8b 7e       	andi	r24, 0xEB	; 235
     cc0:	80 83       	st	Z, r24
     cc2:	08 95       	ret
     cc4:	a8 95       	wdr
     cc6:	81 ea       	ldi	r24, 0xA1	; 161
     cc8:	96 e8       	ldi	r25, 0x86	; 134
     cca:	a1 e0       	ldi	r26, 0x01	; 1
     ccc:	b0 e0       	ldi	r27, 0x00	; 0
     cce:	20 91 bc 00 	lds	r18, 0x00BC	;  0x8000bc
     cd2:	27 fd       	sbrc	r18, 7
     cd4:	0b c0       	rjmp	.+22     	;  0xcec
     cd6:	20 91 b9 00 	lds	r18, 0x00B9	;  0x8000b9
     cda:	22 23       	and	r18, r18
     cdc:	39 f0       	breq	.+14     	;  0xcec
     cde:	01 97       	sbiw	r24, 0x01	; 1
     ce0:	a1 09       	sbc	r26, r1
     ce2:	b1 09       	sbc	r27, r1
     ce4:	a1 f7       	brne	.-24     	;  0xcce
     ce6:	e8 df       	rcall	.-48     	;  0xcb8
     ce8:	de cf       	rjmp	.-68     	;  0xca6
     cea:	08 95       	ret
     cec:	08 95       	ret
     cee:	84 ea       	ldi	r24, 0xA4	; 164
     cf0:	80 93 bc 00 	sts	0x00BC, r24	;  0x8000bc
     cf4:	e7 cf       	rjmp	.-50     	;  0xcc4
     cf6:	08 95       	ret
     cf8:	84 e9       	ldi	r24, 0x94	; 148
     cfa:	80 93 bc 00 	sts	0x00BC, r24	;  0x8000bc
     cfe:	81 e3       	ldi	r24, 0x31	; 49
     d00:	8a 95       	dec	r24
     d02:	f1 f7       	brne	.-4      	;  0xd00
     d04:	00 00       	nop
     d06:	08 95       	ret
     d08:	80 93 bb 00 	sts	0x00BB, r24	;  0x8000bb
     d0c:	84 e8       	ldi	r24, 0x84	; 132
     d0e:	80 93 bc 00 	sts	0x00BC, r24	;  0x8000bc
     d12:	d8 cf       	rjmp	.-80     	;  0xcc4
     d14:	08 95       	ret
     d16:	cf 93       	push	r28
     d18:	c8 2f       	mov	r28, r24
     d1a:	e9 df       	rcall	.-46     	;  0xcee
     d1c:	80 e7       	ldi	r24, 0x70	; 112
     d1e:	f4 df       	rcall	.-24     	;  0xd08
     d20:	8c 2f       	mov	r24, r28
     d22:	f2 df       	rcall	.-28     	;  0xd08
     d24:	e9 df       	rcall	.-46     	;  0xcf8
     d26:	cf 91       	pop	r28
     d28:	08 95       	ret
     d2a:	8e ea       	ldi	r24, 0xAE	; 174
     d2c:	f4 cf       	rjmp	.-24     	;  0xd16
     d2e:	08 95       	ret
     d30:	de df       	rcall	.-68     	;  0xcee
     d32:	82 e7       	ldi	r24, 0x72	; 114
     d34:	e9 cf       	rjmp	.-46     	;  0xd08
     d36:	08 95       	ret
     d38:	ff 92       	push	r15
     d3a:	0f 93       	push	r16
     d3c:	1f 93       	push	r17
     d3e:	cf 93       	push	r28
     d40:	df 93       	push	r29
     d42:	f6 2e       	mov	r15, r22
     d44:	c0 ee       	ldi	r28, 0xE0	; 224
     d46:	c8 0f       	add	r28, r24
     d48:	cf 35       	cpi	r28, 0x5F	; 95
     d4a:	08 f0       	brcs	.+2      	;  0xd4e
     d4c:	c0 e0       	ldi	r28, 0x00	; 0
     d4e:	f0 df       	rcall	.-32     	;  0xd30
     d50:	85 e0       	ldi	r24, 0x05	; 5
     d52:	c8 9f       	mul	r28, r24
     d54:	e0 01       	movw	r28, r0
     d56:	11 24       	eor	r1, r1
     d58:	00 e0       	ldi	r16, 0x00	; 0
     d5a:	10 e0       	ldi	r17, 0x00	; 0
     d5c:	fe 01       	movw	r30, r28
     d5e:	e0 0f       	add	r30, r16
     d60:	f1 1f       	adc	r31, r17
     d62:	e4 54       	subi	r30, 0x44	; 68
     d64:	fe 4f       	sbci	r31, 0xFE	; 254
     d66:	85 91       	lpm	r24, Z+
     d68:	94 91       	lpm	r25, Z
     d6a:	f1 10       	cpse	r15, r1
     d6c:	80 95       	com	r24
     d6e:	cc df       	rcall	.-104    	;  0xd08
     d70:	0f 5f       	subi	r16, 0xFF	; 255
     d72:	1f 4f       	sbci	r17, 0xFF	; 255
     d74:	05 30       	cpi	r16, 0x05	; 5
     d76:	11 05       	cpc	r17, r1
     d78:	89 f7       	brne	.-30     	;  0xd5c
     d7a:	8f 2d       	mov	r24, r15
     d7c:	81 95       	neg	r24
     d7e:	c4 df       	rcall	.-120    	;  0xd08
     d80:	bb df       	rcall	.-138    	;  0xcf8
     d82:	cd b7       	in	r28, 0x3d	; 61
     d84:	de b7       	in	r29, 0x3e	; 62
     d86:	e5 e0       	ldi	r30, 0x05	; 5
     d88:	0c 94 1d 1c 	jmp	0x383a	;  0x383a
     d8c:	60 e0       	ldi	r22, 0x00	; 0
     d8e:	d4 df       	rcall	.-88     	;  0xd38
     d90:	80 e0       	ldi	r24, 0x00	; 0
     d92:	90 e0       	ldi	r25, 0x00	; 0
     d94:	08 95       	ret
     d96:	b0 cf       	rjmp	.-160    	;  0xcf8
     d98:	08 95       	ret
     d9a:	cf 93       	push	r28
     d9c:	c6 2f       	mov	r28, r22
     d9e:	80 6b       	ori	r24, 0xB0	; 176
     da0:	ba df       	rcall	.-140    	;  0xd16
     da2:	a5 df       	rcall	.-182    	;  0xcee
     da4:	80 e7       	ldi	r24, 0x70	; 112
     da6:	b0 df       	rcall	.-160    	;  0xd08
     da8:	8c 2f       	mov	r24, r28
     daa:	8f 70       	andi	r24, 0x0F	; 15
     dac:	ad df       	rcall	.-166    	;  0xd08
     dae:	8c 2f       	mov	r24, r28
     db0:	82 95       	swap	r24
     db2:	8f 70       	andi	r24, 0x0F	; 15
     db4:	80 61       	ori	r24, 0x10	; 16
     db6:	a8 df       	rcall	.-176    	;  0xd08
     db8:	9f df       	rcall	.-194    	;  0xcf8
     dba:	cf 91       	pop	r28
     dbc:	08 95       	ret
     dbe:	ef 92       	push	r14
     dc0:	ff 92       	push	r15
     dc2:	0f 93       	push	r16
     dc4:	1f 93       	push	r17
     dc6:	cf 93       	push	r28
     dc8:	df 93       	push	r29
     dca:	c8 2f       	mov	r28, r24
     dcc:	f6 2e       	mov	r15, r22
     dce:	e4 2e       	mov	r14, r20
     dd0:	64 2f       	mov	r22, r20
     dd2:	8f 2d       	mov	r24, r15
     dd4:	e2 df       	rcall	.-60     	;  0xd9a
     dd6:	86 e1       	ldi	r24, 0x16	; 22
     dd8:	c8 9f       	mul	r28, r24
     dda:	e0 01       	movw	r28, r0
     ddc:	11 24       	eor	r1, r1
     dde:	c8 57       	subi	r28, 0x78	; 120
     de0:	df 4f       	sbci	r29, 0xFF	; 255
     de2:	a6 df       	rcall	.-180    	;  0xd30
     de4:	00 e0       	ldi	r16, 0x00	; 0
     de6:	10 e0       	ldi	r17, 0x00	; 0
     de8:	fe 01       	movw	r30, r28
     dea:	e0 0f       	add	r30, r16
     dec:	f1 1f       	adc	r31, r17
     dee:	85 91       	lpm	r24, Z+
     df0:	94 91       	lpm	r25, Z
     df2:	8a df       	rcall	.-236    	;  0xd08
     df4:	0f 5f       	subi	r16, 0xFF	; 255
     df6:	1f 4f       	sbci	r17, 0xFF	; 255
     df8:	0b 30       	cpi	r16, 0x0B	; 11
     dfa:	11 05       	cpc	r17, r1
     dfc:	a9 f7       	brne	.-22     	;  0xde8
     dfe:	7c df       	rcall	.-264    	;  0xcf8
     e00:	6e 2d       	mov	r22, r14
     e02:	81 e0       	ldi	r24, 0x01	; 1
     e04:	8f 0d       	add	r24, r15
     e06:	c9 df       	rcall	.-110    	;  0xd9a
     e08:	8e 01       	movw	r16, r28
     e0a:	0a 5e       	subi	r16, 0xEA	; 234
     e0c:	1f 4f       	sbci	r17, 0xFF	; 255
     e0e:	90 df       	rcall	.-224    	;  0xd30
     e10:	2b 96       	adiw	r28, 0x0b	; 11
     e12:	c0 17       	cp	r28, r16
     e14:	d1 07       	cpc	r29, r17
     e16:	30 f4       	brcc	.+12     	;  0xe24
     e18:	fe 01       	movw	r30, r28
     e1a:	85 91       	lpm	r24, Z+
     e1c:	94 91       	lpm	r25, Z
     e1e:	74 df       	rcall	.-280    	;  0xd08
     e20:	21 96       	adiw	r28, 0x01	; 1
     e22:	f7 cf       	rjmp	.-18     	;  0xe12
     e24:	69 df       	rcall	.-302    	;  0xcf8
     e26:	cd b7       	in	r28, 0x3d	; 61
     e28:	de b7       	in	r29, 0x3e	; 62
     e2a:	e6 e0       	ldi	r30, 0x06	; 6
     e2c:	0c 94 1c 1c 	jmp	0x3838	;  0x3838
     e30:	a6 e0       	ldi	r26, 0x06	; 6
     e32:	b0 e0       	ldi	r27, 0x00	; 0
     e34:	ee e1       	ldi	r30, 0x1E	; 30
     e36:	f7 e0       	ldi	r31, 0x07	; 7
     e38:	0c 94 fa 1b 	jmp	0x37f4	;  0x37f4
     e3c:	f4 2e       	mov	r15, r20
     e3e:	12 2f       	mov	r17, r18
     e40:	9e 01       	movw	r18, r28
     e42:	2f 5f       	subi	r18, 0xFF	; 255
     e44:	3f 4f       	sbci	r19, 0xFF	; 255
     e46:	59 01       	movw	r10, r18
     e48:	26 e0       	ldi	r18, 0x06	; 6
     e4a:	f5 01       	movw	r30, r10
     e4c:	11 92       	st	Z+, r1
     e4e:	2a 95       	dec	r18
     e50:	e9 f7       	brne	.-6      	;  0xe4c
     e52:	61 15       	cp	r22, r1
     e54:	71 05       	cpc	r23, r1
     e56:	81 05       	cpc	r24, r1
     e58:	91 05       	cpc	r25, r1
     e5a:	21 f4       	brne	.+8      	;  0xe64
     e5c:	dd 24       	eor	r13, r13
     e5e:	d3 94       	inc	r13
     e60:	d4 0e       	add	r13, r20
     e62:	19 c0       	rjmp	.+50     	;  0xe96
     e64:	20 e0       	ldi	r18, 0x00	; 0
     e66:	dd 24       	eor	r13, r13
     e68:	d3 94       	inc	r13
     e6a:	d2 0e       	add	r13, r18
     e6c:	45 01       	movw	r8, r10
     e6e:	82 0e       	add	r8, r18
     e70:	91 1c       	adc	r9, r1
     e72:	27 fd       	sbrc	r18, 7
     e74:	9a 94       	dec	r9
     e76:	2a e0       	ldi	r18, 0x0A	; 10
     e78:	30 e0       	ldi	r19, 0x00	; 0
     e7a:	40 e0       	ldi	r20, 0x00	; 0
     e7c:	50 e0       	ldi	r21, 0x00	; 0
     e7e:	0e 94 cc 1b 	call	0x3798	;  0x3798
     e82:	f4 01       	movw	r30, r8
     e84:	60 83       	st	Z, r22
     e86:	b9 01       	movw	r22, r18
     e88:	ca 01       	movw	r24, r20
     e8a:	2d 2d       	mov	r18, r13
     e8c:	61 15       	cp	r22, r1
     e8e:	71 05       	cpc	r23, r1
     e90:	81 05       	cpc	r24, r1
     e92:	91 05       	cpc	r25, r1
     e94:	41 f7       	brne	.-48     	;  0xe66
     e96:	8d 2d       	mov	r24, r13
     e98:	0d 2c       	mov	r0, r13
     e9a:	00 0c       	add	r0, r0
     e9c:	99 0b       	sbc	r25, r25
     e9e:	21 2f       	mov	r18, r17
     ea0:	30 e0       	ldi	r19, 0x00	; 0
     ea2:	82 17       	cp	r24, r18
     ea4:	93 07       	cpc	r25, r19
     ea6:	34 f4       	brge	.+12     	;  0xeb4
     ea8:	d3 94       	inc	r13
     eaa:	f5 01       	movw	r30, r10
     eac:	e8 0f       	add	r30, r24
     eae:	f9 1f       	adc	r31, r25
     eb0:	10 82       	st	Z, r1
     eb2:	f1 cf       	rjmp	.-30     	;  0xe96
     eb4:	cc 20       	and	r12, r12
     eb6:	49 f0       	breq	.+18     	;  0xeca
     eb8:	26 e0       	ldi	r18, 0x06	; 6
     eba:	30 e0       	ldi	r19, 0x00	; 0
     ebc:	28 1b       	sub	r18, r24
     ebe:	39 0b       	sbc	r19, r25
     ec0:	8b e0       	ldi	r24, 0x0B	; 11
     ec2:	28 9f       	mul	r18, r24
     ec4:	20 2d       	mov	r18, r0
     ec6:	11 24       	eor	r1, r1
     ec8:	01 c0       	rjmp	.+2      	;  0xecc
     eca:	20 e0       	ldi	r18, 0x00	; 0
     ecc:	e2 0e       	add	r14, r18
     ece:	60 e0       	ldi	r22, 0x00	; 0
     ed0:	80 2f       	mov	r24, r16
     ed2:	63 df       	rcall	.-314    	;  0xd9a
     ed4:	2d df       	rcall	.-422    	;  0xd30
     ed6:	10 e0       	ldi	r17, 0x00	; 0
     ed8:	1e 15       	cp	r17, r14
     eda:	21 f0       	breq	.+8      	;  0xee4
     edc:	80 e0       	ldi	r24, 0x00	; 0
     ede:	14 df       	rcall	.-472    	;  0xd08
     ee0:	1f 5f       	subi	r17, 0xFF	; 255
     ee2:	fa cf       	rjmp	.-12     	;  0xed8
     ee4:	09 df       	rcall	.-494    	;  0xcf8
     ee6:	60 e0       	ldi	r22, 0x00	; 0
     ee8:	81 e0       	ldi	r24, 0x01	; 1
     eea:	80 0f       	add	r24, r16
     eec:	56 df       	rcall	.-340    	;  0xd9a
     eee:	20 df       	rcall	.-448    	;  0xd30
     ef0:	10 e0       	ldi	r17, 0x00	; 0
     ef2:	1e 15       	cp	r17, r14
     ef4:	21 f0       	breq	.+8      	;  0xefe
     ef6:	80 e0       	ldi	r24, 0x00	; 0
     ef8:	07 df       	rcall	.-498    	;  0xd08
     efa:	1f 5f       	subi	r17, 0xFF	; 255
     efc:	fa cf       	rjmp	.-12     	;  0xef2
     efe:	fc de       	rcall	.-520    	;  0xcf8
     f00:	1f ef       	ldi	r17, 0xFF	; 255
     f02:	1d 0d       	add	r17, r13
     f04:	8d 2d       	mov	r24, r13
     f06:	0d 2c       	mov	r0, r13
     f08:	00 0c       	add	r0, r0
     f0a:	99 0b       	sbc	r25, r25
     f0c:	2f 2d       	mov	r18, r15
     f0e:	30 e0       	ldi	r19, 0x00	; 0
     f10:	28 17       	cp	r18, r24
     f12:	39 07       	cpc	r19, r25
     f14:	6c f4       	brge	.+26     	;  0xf30
     f16:	f5 01       	movw	r30, r10
     f18:	e1 0f       	add	r30, r17
     f1a:	f1 1d       	adc	r31, r1
     f1c:	17 fd       	sbrc	r17, 7
     f1e:	fa 95       	dec	r31
     f20:	4e 2d       	mov	r20, r14
     f22:	60 2f       	mov	r22, r16
     f24:	80 81       	ld	r24, Z
     f26:	4b df       	rcall	.-362    	;  0xdbe
     f28:	fb e0       	ldi	r31, 0x0B	; 11
     f2a:	ef 0e       	add	r14, r31
     f2c:	d1 2e       	mov	r13, r17
     f2e:	e8 cf       	rjmp	.-48     	;  0xf00
     f30:	ff 20       	and	r15, r15
     f32:	21 f0       	breq	.+8      	;  0xf3c
     f34:	4e 2d       	mov	r20, r14
     f36:	60 2f       	mov	r22, r16
     f38:	8a e0       	ldi	r24, 0x0A	; 10
     f3a:	41 df       	rcall	.-382    	;  0xdbe
     f3c:	17 fd       	sbrc	r17, 7
     f3e:	10 c0       	rjmp	.+32     	;  0xf60
     f40:	2b e0       	ldi	r18, 0x0B	; 11
     f42:	e2 0e       	add	r14, r18
     f44:	ff 24       	eor	r15, r15
     f46:	fa 94       	dec	r15
     f48:	f1 0e       	add	r15, r17
     f4a:	f5 01       	movw	r30, r10
     f4c:	e1 0f       	add	r30, r17
     f4e:	f1 1d       	adc	r31, r1
     f50:	17 fd       	sbrc	r17, 7
     f52:	fa 95       	dec	r31
     f54:	4e 2d       	mov	r20, r14
     f56:	60 2f       	mov	r22, r16
     f58:	80 81       	ld	r24, Z
     f5a:	31 df       	rcall	.-414    	;  0xdbe
     f5c:	1f 2d       	mov	r17, r15
     f5e:	ee cf       	rjmp	.-36     	;  0xf3c
     f60:	8e 2d       	mov	r24, r14
     f62:	26 96       	adiw	r28, 0x06	; 6
     f64:	ec e0       	ldi	r30, 0x0C	; 12
     f66:	0c 94 16 1c 	jmp	0x382c	;  0x382c
     f6a:	cf 92       	push	r12
     f6c:	ef 92       	push	r14
     f6e:	0f 93       	push	r16
     f70:	cf 93       	push	r28
     f72:	df 93       	push	r29
     f74:	d2 2f       	mov	r29, r18
     f76:	cc 24       	eor	r12, r12
     f78:	c3 94       	inc	r12
     f7a:	e0 2e       	mov	r14, r16
     f7c:	02 2f       	mov	r16, r18
     f7e:	21 e0       	ldi	r18, 0x01	; 1
     f80:	57 df       	rcall	.-338    	;  0xe30
     f82:	c8 2f       	mov	r28, r24
     f84:	4b e0       	ldi	r20, 0x0B	; 11
     f86:	48 0f       	add	r20, r24
     f88:	6d 2f       	mov	r22, r29
     f8a:	8b e0       	ldi	r24, 0x0B	; 11
     f8c:	18 df       	rcall	.-464    	;  0xdbe
     f8e:	46 e1       	ldi	r20, 0x16	; 22
     f90:	4c 0f       	add	r20, r28
     f92:	6d 2f       	mov	r22, r29
     f94:	8c e0       	ldi	r24, 0x0C	; 12
     f96:	13 df       	rcall	.-474    	;  0xdbe
     f98:	df 91       	pop	r29
     f9a:	cf 91       	pop	r28
     f9c:	0f 91       	pop	r16
     f9e:	ef 90       	pop	r14
     fa0:	cf 90       	pop	r12
     fa2:	08 95       	ret
     fa4:	cf 92       	push	r12
     fa6:	ef 92       	push	r14
     fa8:	0f 93       	push	r16
     faa:	cf 93       	push	r28
     fac:	c2 2f       	mov	r28, r18
     fae:	cc 24       	eor	r12, r12
     fb0:	c3 94       	inc	r12
     fb2:	e0 2e       	mov	r14, r16
     fb4:	02 2f       	mov	r16, r18
     fb6:	23 e0       	ldi	r18, 0x03	; 3
     fb8:	3b df       	rcall	.-394    	;  0xe30
     fba:	4b e0       	ldi	r20, 0x0B	; 11
     fbc:	48 0f       	add	r20, r24
     fbe:	6c 2f       	mov	r22, r28
     fc0:	8d e0       	ldi	r24, 0x0D	; 13
     fc2:	fd de       	rcall	.-518    	;  0xdbe
     fc4:	cf 91       	pop	r28
     fc6:	0f 91       	pop	r16
     fc8:	ef 90       	pop	r14
     fca:	cf 90       	pop	r12
     fcc:	08 95       	ret
     fce:	cf 93       	push	r28
     fd0:	df 93       	push	r29
     fd2:	8d de       	rcall	.-742    	;  0xcee
     fd4:	80 e7       	ldi	r24, 0x70	; 112
     fd6:	98 de       	rcall	.-720    	;  0xd08
     fd8:	80 eb       	ldi	r24, 0xB0	; 176
     fda:	96 de       	rcall	.-724    	;  0xd08
     fdc:	80 e0       	ldi	r24, 0x00	; 0
     fde:	94 de       	rcall	.-728    	;  0xd08
     fe0:	80 e1       	ldi	r24, 0x10	; 16
     fe2:	92 de       	rcall	.-732    	;  0xd08
     fe4:	89 de       	rcall	.-750    	;  0xcf8
     fe6:	a4 de       	rcall	.-696    	;  0xd30
     fe8:	c0 e2       	ldi	r28, 0x20	; 32
     fea:	d4 e0       	ldi	r29, 0x04	; 4
     fec:	80 e0       	ldi	r24, 0x00	; 0
     fee:	8c de       	rcall	.-744    	;  0xd08
     ff0:	21 97       	sbiw	r28, 0x01	; 1
     ff2:	e1 f7       	brne	.-8      	;  0xfec
     ff4:	81 de       	rcall	.-766    	;  0xcf8
     ff6:	df 91       	pop	r29
     ff8:	cf 91       	pop	r28
     ffa:	08 95       	ret
     ffc:	8f ef       	ldi	r24, 0xFF	; 255
     ffe:	9f e8       	ldi	r25, 0x8F	; 143
    1000:	01 97       	sbiw	r24, 0x01	; 1
    1002:	f1 f7       	brne	.-4      	;  0x1000
    1004:	00 c0       	rjmp	.+0      	;  0x1006
    1006:	00 00       	nop
    1008:	82 ee       	ldi	r24, 0xE2	; 226
    100a:	85 de       	rcall	.-758    	;  0xd16
    100c:	8f ef       	ldi	r24, 0xFF	; 255
    100e:	9f e8       	ldi	r25, 0x8F	; 143
    1010:	01 97       	sbiw	r24, 0x01	; 1
    1012:	f1 f7       	brne	.-4      	;  0x1010
    1014:	00 c0       	rjmp	.+0      	;  0x1016
    1016:	00 00       	nop
    1018:	6a de       	rcall	.-812    	;  0xcee
    101a:	80 e7       	ldi	r24, 0x70	; 112
    101c:	75 de       	rcall	.-790    	;  0xd08
    101e:	8b ee       	ldi	r24, 0xEB	; 235
    1020:	73 de       	rcall	.-794    	;  0xd08
    1022:	81 e8       	ldi	r24, 0x81	; 129
    1024:	71 de       	rcall	.-798    	;  0xd08
    1026:	8e e6       	ldi	r24, 0x6E	; 110
    1028:	6f de       	rcall	.-802    	;  0xd08
    102a:	86 ec       	ldi	r24, 0xC6	; 198
    102c:	6d de       	rcall	.-806    	;  0xd08
    102e:	8f ea       	ldi	r24, 0xAF	; 175
    1030:	6b de       	rcall	.-810    	;  0xd08
    1032:	62 de       	rcall	.-828    	;  0xcf8
    1034:	cc df       	rcall	.-104    	;  0xfce
    1036:	80 e0       	ldi	r24, 0x00	; 0
    1038:	91 e0       	ldi	r25, 0x01	; 1
    103a:	90 93 09 03 	sts	0x0309, r25	;  0x800309
    103e:	80 93 08 03 	sts	0x0308, r24	;  0x800308
    1042:	08 95       	ret
    1044:	10 92 b0 00 	sts	0x00B0, r1	;  0x8000b0
    1048:	85 e0       	ldi	r24, 0x05	; 5
    104a:	80 93 b1 00 	sts	0x00B1, r24	;  0x8000b1
    104e:	10 92 b2 00 	sts	0x00B2, r1	;  0x8000b2
    1052:	08 95       	ret
    1054:	ef e8       	ldi	r30, 0x8F	; 143
    1056:	f2 e0       	ldi	r31, 0x02	; 2
    1058:	2f ef       	ldi	r18, 0xFF	; 255
    105a:	3f ef       	ldi	r19, 0xFF	; 255
    105c:	81 50       	subi	r24, 0x01	; 1
    105e:	c8 f0       	brcs	.+50     	;  0x1092
    1060:	91 91       	ld	r25, Z+
    1062:	29 27       	eor	r18, r25
    1064:	92 2f       	mov	r25, r18
    1066:	92 95       	swap	r25
    1068:	92 27       	eor	r25, r18
    106a:	09 2e       	mov	r0, r25
    106c:	96 95       	lsr	r25
    106e:	96 95       	lsr	r25
    1070:	90 25       	eor	r25, r0
    1072:	09 2e       	mov	r0, r25
    1074:	96 95       	lsr	r25
    1076:	90 25       	eor	r25, r0
    1078:	97 70       	andi	r25, 0x07	; 7
    107a:	02 2e       	mov	r0, r18
    107c:	23 2f       	mov	r18, r19
    107e:	96 95       	lsr	r25
    1080:	07 94       	ror	r0
    1082:	97 95       	ror	r25
    1084:	30 2d       	mov	r19, r0
    1086:	29 27       	eor	r18, r25
    1088:	06 94       	lsr	r0
    108a:	97 95       	ror	r25
    108c:	30 25       	eor	r19, r0
    108e:	29 27       	eor	r18, r25
    1090:	e5 cf       	rjmp	.-54     	;  0x105c
    1092:	c9 01       	movw	r24, r18
    1094:	08 95       	ret
    1096:	80 91 39 01 	lds	r24, 0x0139	;  0x800139
    109a:	82 50       	subi	r24, 0x02	; 2
    109c:	db df       	rcall	.-74     	;  0x1054
    109e:	e0 91 39 01 	lds	r30, 0x0139	;  0x800139
    10a2:	f0 e0       	ldi	r31, 0x00	; 0
    10a4:	e3 57       	subi	r30, 0x73	; 115
    10a6:	fd 4f       	sbci	r31, 0xFD	; 253
    10a8:	20 81       	ld	r18, Z
    10aa:	31 81       	ldd	r19, Z+1	; 0x01
    10ac:	82 17       	cp	r24, r18
    10ae:	93 07       	cpc	r25, r19
    10b0:	11 f4       	brne	.+4      	;  0x10b6
    10b2:	80 e0       	ldi	r24, 0x00	; 0
    10b4:	08 95       	ret
    10b6:	83 e0       	ldi	r24, 0x03	; 3
    10b8:	08 95       	ret
    10ba:	cf 93       	push	r28
    10bc:	c8 2f       	mov	r28, r24
    10be:	8d 3f       	cpi	r24, 0xFD	; 253
    10c0:	90 f0       	brcs	.+36     	;  0x10e6
    10c2:	80 91 83 02 	lds	r24, 0x0283	;  0x800283
    10c6:	90 91 84 02 	lds	r25, 0x0284	;  0x800284
    10ca:	01 96       	adiw	r24, 0x01	; 1
    10cc:	90 93 84 02 	sts	0x0284, r25	;  0x800284
    10d0:	80 93 83 02 	sts	0x0283, r24	;  0x800283
    10d4:	80 91 90 02 	lds	r24, 0x0290	;  0x800290
    10d8:	80 68       	ori	r24, 0x80	; 128
    10da:	80 93 90 02 	sts	0x0290, r24	;  0x800290
    10de:	83 e0       	ldi	r24, 0x03	; 3
    10e0:	80 93 91 02 	sts	0x0291, r24	;  0x800291
    10e4:	c2 e0       	ldi	r28, 0x02	; 2
    10e6:	80 91 c1 00 	lds	r24, 0x00C1	;  0x8000c1
    10ea:	8f 7e       	andi	r24, 0xEF	; 239
    10ec:	80 93 c1 00 	sts	0x00C1, r24	;  0x8000c1
    10f0:	80 91 cf 02 	lds	r24, 0x02CF	;  0x8002cf
    10f4:	88 23       	and	r24, r24
    10f6:	11 f0       	breq	.+4      	;  0x10fc
    10f8:	42 9a       	sbi	0x08, 2	; 8
    10fa:	43 9a       	sbi	0x08, 3	; 8
    10fc:	60 93 8f 02 	sts	0x028F, r22	;  0x80028f
    1100:	81 e0       	ldi	r24, 0x01	; 1
    1102:	8c 0f       	add	r24, r28
    1104:	a7 df       	rcall	.-178    	;  0x1054
    1106:	ec 2f       	mov	r30, r28
    1108:	f0 e0       	ldi	r31, 0x00	; 0
    110a:	e1 57       	subi	r30, 0x71	; 113
    110c:	fd 4f       	sbci	r31, 0xFD	; 253
    110e:	81 83       	std	Z+1, r24	; 0x01
    1110:	92 83       	std	Z+2, r25	; 0x02
    1112:	8f e8       	ldi	r24, 0x8F	; 143
    1114:	92 e0       	ldi	r25, 0x02	; 2
    1116:	90 93 3b 01 	sts	0x013B, r25	;  0x80013b
    111a:	80 93 3a 01 	sts	0x013A, r24	;  0x80013a
    111e:	cd 5f       	subi	r28, 0xFD	; 253
    1120:	c0 93 39 01 	sts	0x0139, r28	;  0x800139
    1124:	e0 91 d0 02 	lds	r30, 0x02D0	;  0x8002d0
    1128:	f0 91 d1 02 	lds	r31, 0x02D1	;  0x8002d1
    112c:	35 97       	sbiw	r30, 0x05	; 5
    112e:	80 81       	ld	r24, Z
    1130:	80 62       	ori	r24, 0x20	; 32
    1132:	80 83       	st	Z, r24
    1134:	80 91 c1 00 	lds	r24, 0x00C1	;  0x8000c1
    1138:	84 ff       	sbrs	r24, 4
    113a:	fc cf       	rjmp	.-8      	;  0x1134
    113c:	cf 91       	pop	r28
    113e:	08 95       	ret
    1140:	80 91 0e 01 	lds	r24, 0x010E	;  0x80010e
    1144:	82 30       	cpi	r24, 0x02	; 2
    1146:	51 f4       	brne	.+20     	;  0x115c
    1148:	80 91 b2 00 	lds	r24, 0x00B2	;  0x8000b2
    114c:	8a 3c       	cpi	r24, 0xCA	; 202
    114e:	30 f0       	brcs	.+12     	;  0x115c
    1150:	85 e0       	ldi	r24, 0x05	; 5
    1152:	80 93 0e 01 	sts	0x010E, r24	;  0x80010e
    1156:	80 91 39 01 	lds	r24, 0x0139	;  0x800139
    115a:	08 95       	ret
    115c:	80 91 0e 01 	lds	r24, 0x010E	;  0x80010e
    1160:	85 30       	cpi	r24, 0x05	; 5
    1162:	19 f4       	brne	.+6      	;  0x116a
    1164:	81 e0       	ldi	r24, 0x01	; 1
    1166:	80 93 0e 01 	sts	0x010E, r24	;  0x80010e
    116a:	80 e0       	ldi	r24, 0x00	; 0
    116c:	08 95       	ret
    116e:	cf 93       	push	r28
    1170:	90 91 39 01 	lds	r25, 0x0139	;  0x800139
    1174:	94 30       	cpi	r25, 0x04	; 4
    1176:	28 f1       	brcs	.+74     	;  0x11c2
    1178:	90 91 39 01 	lds	r25, 0x0139	;  0x800139
    117c:	91 34       	cpi	r25, 0x41	; 65
    117e:	08 f5       	brcc	.+66     	;  0x11c2
    1180:	c8 2f       	mov	r28, r24
    1182:	89 df       	rcall	.-238    	;  0x1096
    1184:	81 11       	cpse	r24, r1
    1186:	1d c0       	rjmp	.+58     	;  0x11c2
    1188:	20 91 7f 02 	lds	r18, 0x027F	;  0x80027f
    118c:	30 91 80 02 	lds	r19, 0x0280	;  0x800280
    1190:	2f 5f       	subi	r18, 0xFF	; 255
    1192:	3f 4f       	sbci	r19, 0xFF	; 255
    1194:	30 93 80 02 	sts	0x0280, r19	;  0x800280
    1198:	20 93 7f 02 	sts	0x027F, r18	;  0x80027f
    119c:	cc 23       	and	r28, r28
    119e:	21 f0       	breq	.+8      	;  0x11a8
    11a0:	90 91 8f 02 	lds	r25, 0x028F	;  0x80028f
    11a4:	c9 13       	cpse	r28, r25
    11a6:	17 c0       	rjmp	.+46     	;  0x11d6
    11a8:	80 91 85 02 	lds	r24, 0x0285	;  0x800285
    11ac:	90 91 86 02 	lds	r25, 0x0286	;  0x800286
    11b0:	01 96       	adiw	r24, 0x01	; 1
    11b2:	90 93 86 02 	sts	0x0286, r25	;  0x800286
    11b6:	80 93 85 02 	sts	0x0285, r24	;  0x800285
    11ba:	80 91 39 01 	lds	r24, 0x0139	;  0x800139
    11be:	83 50       	subi	r24, 0x03	; 3
    11c0:	0a c0       	rjmp	.+20     	;  0x11d6
    11c2:	80 91 81 02 	lds	r24, 0x0281	;  0x800281
    11c6:	90 91 82 02 	lds	r25, 0x0282	;  0x800282
    11ca:	01 96       	adiw	r24, 0x01	; 1
    11cc:	90 93 82 02 	sts	0x0282, r25	;  0x800282
    11d0:	80 93 81 02 	sts	0x0281, r24	;  0x800281
    11d4:	80 e0       	ldi	r24, 0x00	; 0
    11d6:	cf 91       	pop	r28
    11d8:	08 95       	ret
    11da:	1f 92       	push	r1
    11dc:	0f 92       	push	r0
    11de:	0f b6       	in	r0, 0x3f	; 63
    11e0:	0f 92       	push	r0
    11e2:	11 24       	eor	r1, r1
    11e4:	2f 93       	push	r18
    11e6:	3f 93       	push	r19
    11e8:	4f 93       	push	r20
    11ea:	5f 93       	push	r21
    11ec:	6f 93       	push	r22
    11ee:	7f 93       	push	r23
    11f0:	8f 93       	push	r24
    11f2:	9f 93       	push	r25
    11f4:	af 93       	push	r26
    11f6:	bf 93       	push	r27
    11f8:	cf 93       	push	r28
    11fa:	ef 93       	push	r30
    11fc:	ff 93       	push	r31
    11fe:	e0 91 d0 02 	lds	r30, 0x02D0	;  0x8002d0
    1202:	f0 91 d1 02 	lds	r31, 0x02D1	;  0x8002d1
    1206:	c0 81       	ld	r28, Z
    1208:	80 91 0e 01 	lds	r24, 0x010E	;  0x80010e
    120c:	85 30       	cpi	r24, 0x05	; 5
    120e:	91 f0       	breq	.+36     	;  0x1234
    1210:	80 91 0e 01 	lds	r24, 0x010E	;  0x80010e
    1214:	81 30       	cpi	r24, 0x01	; 1
    1216:	39 f4       	brne	.+14     	;  0x1226
    1218:	80 91 b2 00 	lds	r24, 0x00B2	;  0x8000b2
    121c:	8a 3c       	cpi	r24, 0xCA	; 202
    121e:	50 f0       	brcs	.+20     	;  0x1234
    1220:	10 92 39 01 	sts	0x0139, r1	;  0x800139
    1224:	09 c0       	rjmp	.+18     	;  0x1238
    1226:	80 91 b2 00 	lds	r24, 0x00B2	;  0x8000b2
    122a:	87 ff       	sbrs	r24, 7
    122c:	05 c0       	rjmp	.+10     	;  0x1238
    122e:	81 e0       	ldi	r24, 0x01	; 1
    1230:	80 93 0e 01 	sts	0x010E, r24	;  0x80010e
    1234:	07 df       	rcall	.-498    	;  0x1044
    1236:	1b c0       	rjmp	.+54     	;  0x126e
    1238:	05 df       	rcall	.-502    	;  0x1044
    123a:	80 91 39 01 	lds	r24, 0x0139	;  0x800139
    123e:	81 11       	cpse	r24, r1
    1240:	05 c0       	rjmp	.+10     	;  0x124c
    1242:	cc 23       	and	r28, r28
    1244:	a1 f0       	breq	.+40     	;  0x126e
    1246:	82 e0       	ldi	r24, 0x02	; 2
    1248:	80 93 0e 01 	sts	0x010E, r24	;  0x80010e
    124c:	e0 91 39 01 	lds	r30, 0x0139	;  0x800139
    1250:	81 e0       	ldi	r24, 0x01	; 1
    1252:	8e 0f       	add	r24, r30
    1254:	80 93 39 01 	sts	0x0139, r24	;  0x800139
    1258:	f0 e0       	ldi	r31, 0x00	; 0
    125a:	e1 57       	subi	r30, 0x71	; 113
    125c:	fd 4f       	sbci	r31, 0xFD	; 253
    125e:	c0 83       	st	Z, r28
    1260:	80 91 39 01 	lds	r24, 0x0139	;  0x800139
    1264:	80 34       	cpi	r24, 0x40	; 64
    1266:	18 f0       	brcs	.+6      	;  0x126e
    1268:	81 e0       	ldi	r24, 0x01	; 1
    126a:	80 93 0e 01 	sts	0x010E, r24	;  0x80010e
    126e:	ff 91       	pop	r31
    1270:	ef 91       	pop	r30
    1272:	cf 91       	pop	r28
    1274:	bf 91       	pop	r27
    1276:	af 91       	pop	r26
    1278:	9f 91       	pop	r25
    127a:	8f 91       	pop	r24
    127c:	7f 91       	pop	r23
    127e:	6f 91       	pop	r22
    1280:	5f 91       	pop	r21
    1282:	4f 91       	pop	r20
    1284:	3f 91       	pop	r19
    1286:	2f 91       	pop	r18
    1288:	0f 90       	pop	r0
    128a:	0f be       	out	0x3f, r0	; 63
    128c:	0f 90       	pop	r0
    128e:	1f 90       	pop	r1
    1290:	18 95       	reti
    1292:	1f 92       	push	r1
    1294:	0f 92       	push	r0
    1296:	0f b6       	in	r0, 0x3f	; 63
    1298:	0f 92       	push	r0
    129a:	11 24       	eor	r1, r1
    129c:	8f 93       	push	r24
    129e:	80 91 c1 00 	lds	r24, 0x00C1	;  0x8000c1
    12a2:	8f 7b       	andi	r24, 0xBF	; 191
    12a4:	80 93 c1 00 	sts	0x00C1, r24	;  0x8000c1
    12a8:	81 e0       	ldi	r24, 0x01	; 1
    12aa:	80 93 0e 01 	sts	0x010E, r24	;  0x80010e
    12ae:	80 91 c1 00 	lds	r24, 0x00C1	;  0x8000c1
    12b2:	80 61       	ori	r24, 0x10	; 16
    12b4:	80 93 c1 00 	sts	0x00C1, r24	;  0x8000c1
    12b8:	80 91 cf 02 	lds	r24, 0x02CF	;  0x8002cf
    12bc:	88 23       	and	r24, r24
    12be:	11 f0       	breq	.+4      	;  0x12c4
    12c0:	42 98       	cbi	0x08, 2	; 8
    12c2:	43 98       	cbi	0x08, 3	; 8
    12c4:	8f 91       	pop	r24
    12c6:	0f 90       	pop	r0
    12c8:	0f be       	out	0x3f, r0	; 63
    12ca:	0f 90       	pop	r0
    12cc:	1f 90       	pop	r1
    12ce:	18 95       	reti
    12d0:	1f 92       	push	r1
    12d2:	0f 92       	push	r0
    12d4:	0f b6       	in	r0, 0x3f	; 63
    12d6:	0f 92       	push	r0
    12d8:	11 24       	eor	r1, r1
    12da:	8f 93       	push	r24
    12dc:	9f 93       	push	r25
    12de:	af 93       	push	r26
    12e0:	bf 93       	push	r27
    12e2:	ef 93       	push	r30
    12e4:	ff 93       	push	r31
    12e6:	e0 91 d0 02 	lds	r30, 0x02D0	;  0x8002d0
    12ea:	f0 91 d1 02 	lds	r31, 0x02D1	;  0x8002d1
    12ee:	a0 91 3a 01 	lds	r26, 0x013A	;  0x80013a
    12f2:	b0 91 3b 01 	lds	r27, 0x013B	;  0x80013b
    12f6:	8c 91       	ld	r24, X
    12f8:	80 83       	st	Z, r24
    12fa:	80 91 3a 01 	lds	r24, 0x013A	;  0x80013a
    12fe:	90 91 3b 01 	lds	r25, 0x013B	;  0x80013b
    1302:	01 96       	adiw	r24, 0x01	; 1
    1304:	90 93 3b 01 	sts	0x013B, r25	;  0x80013b
    1308:	80 93 3a 01 	sts	0x013A, r24	;  0x80013a
    130c:	80 91 39 01 	lds	r24, 0x0139	;  0x800139
    1310:	81 50       	subi	r24, 0x01	; 1
    1312:	80 93 39 01 	sts	0x0139, r24	;  0x800139
    1316:	80 91 39 01 	lds	r24, 0x0139	;  0x800139
    131a:	81 11       	cpse	r24, r1
    131c:	12 c0       	rjmp	.+36     	;  0x1342
    131e:	80 91 c0 00 	lds	r24, 0x00C0	;  0x8000c0
    1322:	80 64       	ori	r24, 0x40	; 64
    1324:	80 93 c0 00 	sts	0x00C0, r24	;  0x8000c0
    1328:	e0 91 d0 02 	lds	r30, 0x02D0	;  0x8002d0
    132c:	f0 91 d1 02 	lds	r31, 0x02D1	;  0x8002d1
    1330:	35 97       	sbiw	r30, 0x05	; 5
    1332:	80 81       	ld	r24, Z
    1334:	8f 7d       	andi	r24, 0xDF	; 223
    1336:	80 83       	st	Z, r24
    1338:	80 91 c1 00 	lds	r24, 0x00C1	;  0x8000c1
    133c:	80 64       	ori	r24, 0x40	; 64
    133e:	80 93 c1 00 	sts	0x00C1, r24	;  0x8000c1
    1342:	ff 91       	pop	r31
    1344:	ef 91       	pop	r30
    1346:	bf 91       	pop	r27
    1348:	af 91       	pop	r26
    134a:	9f 91       	pop	r25
    134c:	8f 91       	pop	r24
    134e:	0f 90       	pop	r0
    1350:	0f be       	out	0x3f, r0	; 63
    1352:	0f 90       	pop	r0
    1354:	1f 90       	pop	r1
    1356:	18 95       	reti
    1358:	1f 92       	push	r1
    135a:	0f 92       	push	r0
    135c:	0f b6       	in	r0, 0x3f	; 63
    135e:	0f 92       	push	r0
    1360:	11 24       	eor	r1, r1
    1362:	8f 93       	push	r24
    1364:	8f ef       	ldi	r24, 0xFF	; 255
    1366:	80 93 b2 00 	sts	0x00B2, r24	;  0x8000b2
    136a:	10 92 b1 00 	sts	0x00B1, r1	;  0x8000b1
    136e:	8f 91       	pop	r24
    1370:	0f 90       	pop	r0
    1372:	0f be       	out	0x3f, r0	; 63
    1374:	0f 90       	pop	r0
    1376:	1f 90       	pop	r1
    1378:	18 95       	reti
    137a:	1f 93       	push	r17
    137c:	cf 93       	push	r28
    137e:	df 93       	push	r29
    1380:	ec 01       	movw	r28, r24
    1382:	16 2f       	mov	r17, r22
    1384:	dd de       	rcall	.-582    	;  0x1140
    1386:	88 23       	and	r24, r24
    1388:	a9 f0       	breq	.+42     	;  0x13b4
    138a:	81 2f       	mov	r24, r17
    138c:	f0 de       	rcall	.-544    	;  0x116e
    138e:	81 11       	cpse	r24, r1
    1390:	03 c0       	rjmp	.+6      	;  0x1398
    1392:	20 e0       	ldi	r18, 0x00	; 0
    1394:	30 e0       	ldi	r19, 0x00	; 0
    1396:	02 c0       	rjmp	.+4      	;  0x139c
    1398:	2f e8       	ldi	r18, 0x8F	; 143
    139a:	32 e0       	ldi	r19, 0x02	; 2
    139c:	30 93 3d 01 	sts	0x013D, r19	;  0x80013d
    13a0:	20 93 3c 01 	sts	0x013C, r18	;  0x80013c
    13a4:	23 97       	sbiw	r28, 0x03	; 3
    13a6:	28 2f       	mov	r18, r24
    13a8:	30 e0       	ldi	r19, 0x00	; 0
    13aa:	81 e0       	ldi	r24, 0x01	; 1
    13ac:	c2 17       	cp	r28, r18
    13ae:	d3 07       	cpc	r29, r19
    13b0:	09 f0       	breq	.+2      	;  0x13b4
    13b2:	80 e0       	ldi	r24, 0x00	; 0
    13b4:	df 91       	pop	r29
    13b6:	cf 91       	pop	r28
    13b8:	1f 91       	pop	r17
    13ba:	08 95       	ret
    13bc:	fc 01       	movw	r30, r24
    13be:	80 81       	ld	r24, Z
    13c0:	93 81       	ldd	r25, Z+3	; 0x03
    13c2:	90 83       	st	Z, r25
    13c4:	83 83       	std	Z+3, r24	; 0x03
    13c6:	81 81       	ldd	r24, Z+1	; 0x01
    13c8:	92 81       	ldd	r25, Z+2	; 0x02
    13ca:	91 83       	std	Z+1, r25	; 0x01
    13cc:	82 83       	std	Z+2, r24	; 0x02
    13ce:	08 95       	ret
    13d0:	26 ec       	ldi	r18, 0xC6	; 198
    13d2:	30 e0       	ldi	r19, 0x00	; 0
    13d4:	30 93 d1 02 	sts	0x02D1, r19	;  0x8002d1
    13d8:	20 93 d0 02 	sts	0x02D0, r18	;  0x8002d0
    13dc:	e0 e7       	ldi	r30, 0x70	; 112
    13de:	f0 e0       	ldi	r31, 0x00	; 0
    13e0:	90 81       	ld	r25, Z
    13e2:	91 60       	ori	r25, 0x01	; 1
    13e4:	90 83       	st	Z, r25
    13e6:	80 93 cf 02 	sts	0x02CF, r24	;  0x8002cf
    13ea:	08 95       	ret
    13ec:	10 92 b0 00 	sts	0x00B0, r1	;  0x8000b0
    13f0:	10 92 b1 00 	sts	0x00B1, r1	;  0x8000b1
    13f4:	e0 e7       	ldi	r30, 0x70	; 112
    13f6:	f0 e0       	ldi	r31, 0x00	; 0
    13f8:	80 81       	ld	r24, Z
    13fa:	8e 7f       	andi	r24, 0xFE	; 254
    13fc:	80 83       	st	Z, r24
    13fe:	08 95       	ret
    1400:	ef e8       	ldi	r30, 0x8F	; 143
    1402:	f2 e0       	ldi	r31, 0x02	; 2
    1404:	24 e0       	ldi	r18, 0x04	; 4
    1406:	21 83       	std	Z+1, r18	; 0x01
    1408:	92 83       	std	Z+2, r25	; 0x02
    140a:	83 83       	std	Z+3, r24	; 0x03
    140c:	14 82       	std	Z+4, r1	; 0x04
    140e:	65 83       	std	Z+5, r22	; 0x05
    1410:	64 2f       	mov	r22, r20
    1412:	85 e0       	ldi	r24, 0x05	; 5
    1414:	52 ce       	rjmp	.-860    	;  0x10ba
    1416:	08 95       	ret
    1418:	ef e8       	ldi	r30, 0x8F	; 143
    141a:	f2 e0       	ldi	r31, 0x02	; 2
    141c:	26 e0       	ldi	r18, 0x06	; 6
    141e:	21 83       	std	Z+1, r18	; 0x01
    1420:	92 83       	std	Z+2, r25	; 0x02
    1422:	83 83       	std	Z+3, r24	; 0x03
    1424:	74 83       	std	Z+4, r23	; 0x04
    1426:	65 83       	std	Z+5, r22	; 0x05
    1428:	64 2f       	mov	r22, r20
    142a:	85 e0       	ldi	r24, 0x05	; 5
    142c:	46 ce       	rjmp	.-884    	;  0x10ba
    142e:	08 95       	ret
    1430:	80 91 8f 02 	lds	r24, 0x028F	;  0x80028f
    1434:	08 95       	ret
    1436:	68 2f       	mov	r22, r24
    1438:	88 e0       	ldi	r24, 0x08	; 8
    143a:	90 e0       	ldi	r25, 0x00	; 0
    143c:	9e cf       	rjmp	.-196    	;  0x137a
    143e:	08 95       	ret
    1440:	88 0f       	add	r24, r24
    1442:	99 1f       	adc	r25, r25
    1444:	05 96       	adiw	r24, 0x05	; 5
    1446:	99 cf       	rjmp	.-206    	;  0x137a
    1448:	08 95       	ret
    144a:	20 91 3c 01 	lds	r18, 0x013C	;  0x80013c
    144e:	90 91 3d 01 	lds	r25, 0x013D	;  0x80013d
    1452:	e2 2f       	mov	r30, r18
    1454:	f9 2f       	mov	r31, r25
    1456:	e8 0f       	add	r30, r24
    1458:	f1 1d       	adc	r31, r1
    145a:	e8 0f       	add	r30, r24
    145c:	f1 1d       	adc	r31, r1
    145e:	83 81       	ldd	r24, Z+3	; 0x03
    1460:	90 e0       	ldi	r25, 0x00	; 0
    1462:	98 2f       	mov	r25, r24
    1464:	88 27       	eor	r24, r24
    1466:	24 81       	ldd	r18, Z+4	; 0x04
    1468:	82 0f       	add	r24, r18
    146a:	91 1d       	adc	r25, r1
    146c:	08 95       	ret
    146e:	a4 e0       	ldi	r26, 0x04	; 4
    1470:	b0 e0       	ldi	r27, 0x00	; 0
    1472:	ed e3       	ldi	r30, 0x3D	; 61
    1474:	fa e0       	ldi	r31, 0x0A	; 10
    1476:	0c 94 04 1c 	jmp	0x3808	;  0x3808
    147a:	20 91 3c 01 	lds	r18, 0x013C	;  0x80013c
    147e:	90 91 3d 01 	lds	r25, 0x013D	;  0x80013d
    1482:	e2 2f       	mov	r30, r18
    1484:	f9 2f       	mov	r31, r25
    1486:	e8 0f       	add	r30, r24
    1488:	f1 1d       	adc	r31, r1
    148a:	e8 0f       	add	r30, r24
    148c:	f1 1d       	adc	r31, r1
    148e:	83 81       	ldd	r24, Z+3	; 0x03
    1490:	94 81       	ldd	r25, Z+4	; 0x04
    1492:	a5 81       	ldd	r26, Z+5	; 0x05
    1494:	b6 81       	ldd	r27, Z+6	; 0x06
    1496:	89 83       	std	Y+1, r24	; 0x01
    1498:	9a 83       	std	Y+2, r25	; 0x02
    149a:	ab 83       	std	Y+3, r26	; 0x03
    149c:	bc 83       	std	Y+4, r27	; 0x04
    149e:	ce 01       	movw	r24, r28
    14a0:	01 96       	adiw	r24, 0x01	; 1
    14a2:	8c df       	rcall	.-232    	;  0x13bc
    14a4:	69 81       	ldd	r22, Y+1	; 0x01
    14a6:	7a 81       	ldd	r23, Y+2	; 0x02
    14a8:	8b 81       	ldd	r24, Y+3	; 0x03
    14aa:	9c 81       	ldd	r25, Y+4	; 0x04
    14ac:	24 96       	adiw	r28, 0x04	; 4
    14ae:	e2 e0       	ldi	r30, 0x02	; 2
    14b0:	0c 94 20 1c 	jmp	0x3840	;  0x3840
    14b4:	a4 e0       	ldi	r26, 0x04	; 4
    14b6:	b0 e0       	ldi	r27, 0x00	; 0
    14b8:	e0 e6       	ldi	r30, 0x60	; 96
    14ba:	fa e0       	ldi	r31, 0x0A	; 10
    14bc:	0c 94 04 1c 	jmp	0x3808	;  0x3808
    14c0:	20 91 3c 01 	lds	r18, 0x013C	;  0x80013c
    14c4:	90 91 3d 01 	lds	r25, 0x013D	;  0x80013d
    14c8:	e2 2f       	mov	r30, r18
    14ca:	f9 2f       	mov	r31, r25
    14cc:	e8 0f       	add	r30, r24
    14ce:	f1 1d       	adc	r31, r1
    14d0:	e8 0f       	add	r30, r24
    14d2:	f1 1d       	adc	r31, r1
    14d4:	83 81       	ldd	r24, Z+3	; 0x03
    14d6:	94 81       	ldd	r25, Z+4	; 0x04
    14d8:	a5 81       	ldd	r26, Z+5	; 0x05
    14da:	b6 81       	ldd	r27, Z+6	; 0x06
    14dc:	89 83       	std	Y+1, r24	; 0x01
    14de:	9a 83       	std	Y+2, r25	; 0x02
    14e0:	ab 83       	std	Y+3, r26	; 0x03
    14e2:	bc 83       	std	Y+4, r27	; 0x04
    14e4:	ce 01       	movw	r24, r28
    14e6:	01 96       	adiw	r24, 0x01	; 1
    14e8:	69 df       	rcall	.-302    	;  0x13bc
    14ea:	69 81       	ldd	r22, Y+1	; 0x01
    14ec:	7a 81       	ldd	r23, Y+2	; 0x02
    14ee:	8b 81       	ldd	r24, Y+3	; 0x03
    14f0:	9c 81       	ldd	r25, Y+4	; 0x04
    14f2:	24 96       	adiw	r28, 0x04	; 4
    14f4:	e2 e0       	ldi	r30, 0x02	; 2
    14f6:	0c 94 20 1c 	jmp	0x3840	;  0x3840
    14fa:	80 91 40 01 	lds	r24, 0x0140	;  0x800140
    14fe:	82 60       	ori	r24, 0x02	; 2
    1500:	80 93 40 01 	sts	0x0140, r24	;  0x800140
    1504:	10 92 49 01 	sts	0x0149, r1	;  0x800149
    1508:	10 92 48 01 	sts	0x0148, r1	;  0x800148
    150c:	08 95       	ret
    150e:	10 92 49 01 	sts	0x0149, r1	;  0x800149
    1512:	10 92 48 01 	sts	0x0148, r1	;  0x800148
    1516:	80 91 40 01 	lds	r24, 0x0140	;  0x800140
    151a:	8e 7f       	andi	r24, 0xFE	; 254
    151c:	8d 7f       	andi	r24, 0xFD	; 253
    151e:	80 93 40 01 	sts	0x0140, r24	;  0x800140
    1522:	08 95       	ret
    1524:	80 91 40 01 	lds	r24, 0x0140	;  0x800140
    1528:	81 70       	andi	r24, 0x01	; 1
    152a:	08 95       	ret
    152c:	80 91 40 01 	lds	r24, 0x0140	;  0x800140
    1530:	8b 7f       	andi	r24, 0xFB	; 251
    1532:	80 93 40 01 	sts	0x0140, r24	;  0x800140
    1536:	10 92 43 01 	sts	0x0143, r1	;  0x800143
    153a:	10 92 42 01 	sts	0x0142, r1	;  0x800142
    153e:	08 95       	ret
    1540:	6a e0       	ldi	r22, 0x0A	; 10
    1542:	70 e0       	ldi	r23, 0x00	; 0
    1544:	0e 94 b8 1b 	call	0x3770	;  0x3770
    1548:	70 93 45 01 	sts	0x0145, r23	;  0x800145
    154c:	60 93 44 01 	sts	0x0144, r22	;  0x800144
    1550:	08 95       	ret
    1552:	90 91 40 01 	lds	r25, 0x0140	;  0x800140
    1556:	89 2f       	mov	r24, r25
    1558:	84 70       	andi	r24, 0x04	; 4
    155a:	92 ff       	sbrs	r25, 2
    155c:	02 c0       	rjmp	.+4      	;  0x1562
    155e:	e6 df       	rcall	.-52     	;  0x152c
    1560:	81 e0       	ldi	r24, 0x01	; 1
    1562:	08 95       	ret
    1564:	80 91 40 01 	lds	r24, 0x0140	;  0x800140
    1568:	87 7f       	andi	r24, 0xF7	; 247
    156a:	80 93 40 01 	sts	0x0140, r24	;  0x800140
    156e:	10 92 47 01 	sts	0x0147, r1	;  0x800147
    1572:	10 92 46 01 	sts	0x0146, r1	;  0x800146
    1576:	08 95       	ret
    1578:	90 91 40 01 	lds	r25, 0x0140	;  0x800140
    157c:	89 2f       	mov	r24, r25
    157e:	88 70       	andi	r24, 0x08	; 8
    1580:	93 ff       	sbrs	r25, 3
    1582:	02 c0       	rjmp	.+4      	;  0x1588
    1584:	ef df       	rcall	.-34     	;  0x1564
    1586:	81 e0       	ldi	r24, 0x01	; 1
    1588:	08 95       	ret
    158a:	93 e4       	ldi	r25, 0x43	; 67
    158c:	94 bd       	out	0x24, r25	; 36
    158e:	9b e0       	ldi	r25, 0x0B	; 11
    1590:	95 bd       	out	0x25, r25	; 37
    1592:	81 30       	cpi	r24, 0x01	; 1
    1594:	29 f4       	brne	.+10     	;  0x15a0
    1596:	80 93 41 01 	sts	0x0141, r24	;  0x800141
    159a:	80 e8       	ldi	r24, 0x80	; 128
    159c:	87 bd       	out	0x27, r24	; 39
    159e:	08 95       	ret
    15a0:	88 ec       	ldi	r24, 0xC8	; 200
    15a2:	87 bd       	out	0x27, r24	; 39
    15a4:	82 e0       	ldi	r24, 0x02	; 2
    15a6:	80 93 41 01 	sts	0x0141, r24	;  0x800141
    15aa:	08 95       	ret
    15ac:	1f 92       	push	r1
    15ae:	0f 92       	push	r0
    15b0:	0f b6       	in	r0, 0x3f	; 63
    15b2:	0f 92       	push	r0
    15b4:	11 24       	eor	r1, r1
    15b6:	2f 93       	push	r18
    15b8:	3f 93       	push	r19
    15ba:	4f 93       	push	r20
    15bc:	5f 93       	push	r21
    15be:	6f 93       	push	r22
    15c0:	7f 93       	push	r23
    15c2:	8f 93       	push	r24
    15c4:	9f 93       	push	r25
    15c6:	af 93       	push	r26
    15c8:	bf 93       	push	r27
    15ca:	ef 93       	push	r30
    15cc:	ff 93       	push	r31
    15ce:	80 91 41 01 	lds	r24, 0x0141	;  0x800141
    15d2:	81 30       	cpi	r24, 0x01	; 1
    15d4:	c1 f4       	brne	.+48     	;  0x1606
    15d6:	20 91 3e 01 	lds	r18, 0x013E	;  0x80013e
    15da:	30 91 3f 01 	lds	r19, 0x013F	;  0x80013f
    15de:	c9 01       	movw	r24, r18
    15e0:	01 96       	adiw	r24, 0x01	; 1
    15e2:	90 93 3f 01 	sts	0x013F, r25	;  0x80013f
    15e6:	80 93 3e 01 	sts	0x013E, r24	;  0x80013e
    15ea:	21 15       	cp	r18, r1
    15ec:	32 40       	sbci	r19, 0x02	; 2
    15ee:	d0 f4       	brcc	.+52     	;  0x1624
    15f0:	80 38       	cpi	r24, 0x80	; 128
    15f2:	91 05       	cpc	r25, r1
    15f4:	10 f0       	brcs	.+4      	;  0x15fa
    15f6:	80 e2       	ldi	r24, 0x20	; 32
    15f8:	24 c0       	rjmp	.+72     	;  0x1642
    15fa:	80 34       	cpi	r24, 0x40	; 64
    15fc:	91 05       	cpc	r25, r1
    15fe:	08 f4       	brcc	.+2      	;  0x1602
    1600:	83 c0       	rjmp	.+262    	;  0x1708
    1602:	80 e4       	ldi	r24, 0x40	; 64
    1604:	1e c0       	rjmp	.+60     	;  0x1642
    1606:	82 30       	cpi	r24, 0x02	; 2
    1608:	f1 f4       	brne	.+60     	;  0x1646
    160a:	20 91 3e 01 	lds	r18, 0x013E	;  0x80013e
    160e:	30 91 3f 01 	lds	r19, 0x013F	;  0x80013f
    1612:	c9 01       	movw	r24, r18
    1614:	01 96       	adiw	r24, 0x01	; 1
    1616:	90 93 3f 01 	sts	0x013F, r25	;  0x80013f
    161a:	80 93 3e 01 	sts	0x013E, r24	;  0x80013e
    161e:	21 15       	cp	r18, r1
    1620:	30 41       	sbci	r19, 0x10	; 16
    1622:	50 f0       	brcs	.+20     	;  0x1638
    1624:	10 92 3f 01 	sts	0x013F, r1	;  0x80013f
    1628:	10 92 3e 01 	sts	0x013E, r1	;  0x80013e
    162c:	10 92 41 01 	sts	0x0141, r1	;  0x800141
    1630:	85 e0       	ldi	r24, 0x05	; 5
    1632:	85 bd       	out	0x25, r24	; 37
    1634:	14 bc       	out	0x24, r1	; 36
    1636:	68 c0       	rjmp	.+208    	;  0x1708
    1638:	81 15       	cp	r24, r1
    163a:	92 40       	sbci	r25, 0x02	; 2
    163c:	08 f4       	brcc	.+2      	;  0x1640
    163e:	64 c0       	rjmp	.+200    	;  0x1708
    1640:	8d e1       	ldi	r24, 0x1D	; 29
    1642:	87 bd       	out	0x27, r24	; 39
    1644:	61 c0       	rjmp	.+194    	;  0x1708
    1646:	80 91 40 01 	lds	r24, 0x0140	;  0x800140
    164a:	80 ff       	sbrs	r24, 0
    164c:	05 c0       	rjmp	.+10     	;  0x1658
    164e:	10 92 49 01 	sts	0x0149, r1	;  0x800149
    1652:	10 92 48 01 	sts	0x0148, r1	;  0x800148
    1656:	21 c0       	rjmp	.+66     	;  0x169a
    1658:	20 91 48 01 	lds	r18, 0x0148	;  0x800148
    165c:	30 91 49 01 	lds	r19, 0x0149	;  0x800149
    1660:	2f 5f       	subi	r18, 0xFF	; 255
    1662:	3f 4f       	sbci	r19, 0xFF	; 255
    1664:	30 93 49 01 	sts	0x0149, r19	;  0x800149
    1668:	20 93 48 01 	sts	0x0148, r18	;  0x800148
    166c:	20 35       	cpi	r18, 0x50	; 80
    166e:	46 e4       	ldi	r20, 0x46	; 70
    1670:	34 07       	cpc	r19, r20
    1672:	30 f0       	brcs	.+12     	;  0x1680
    1674:	10 92 49 01 	sts	0x0149, r1	;  0x800149
    1678:	10 92 48 01 	sts	0x0148, r1	;  0x800148
    167c:	81 60       	ori	r24, 0x01	; 1
    167e:	0b c0       	rjmp	.+22     	;  0x1696
    1680:	81 ff       	sbrs	r24, 1
    1682:	0b c0       	rjmp	.+22     	;  0x169a
    1684:	24 36       	cpi	r18, 0x64	; 100
    1686:	31 05       	cpc	r19, r1
    1688:	40 f0       	brcs	.+16     	;  0x169a
    168a:	10 92 49 01 	sts	0x0149, r1	;  0x800149
    168e:	10 92 48 01 	sts	0x0148, r1	;  0x800148
    1692:	81 60       	ori	r24, 0x01	; 1
    1694:	8d 7f       	andi	r24, 0xFD	; 253
    1696:	80 93 40 01 	sts	0x0140, r24	;  0x800140
    169a:	80 91 40 01 	lds	r24, 0x0140	;  0x800140
    169e:	83 fd       	sbrc	r24, 3
    16a0:	15 c0       	rjmp	.+42     	;  0x16cc
    16a2:	20 91 46 01 	lds	r18, 0x0146	;  0x800146
    16a6:	30 91 47 01 	lds	r19, 0x0147	;  0x800147
    16aa:	a9 01       	movw	r20, r18
    16ac:	4f 5f       	subi	r20, 0xFF	; 255
    16ae:	5f 4f       	sbci	r21, 0xFF	; 255
    16b0:	50 93 47 01 	sts	0x0147, r21	;  0x800147
    16b4:	40 93 46 01 	sts	0x0146, r20	;  0x800146
    16b8:	2c 32       	cpi	r18, 0x2C	; 44
    16ba:	31 40       	sbci	r19, 0x01	; 1
    16bc:	38 f0       	brcs	.+14     	;  0x16cc
    16be:	10 92 47 01 	sts	0x0147, r1	;  0x800147
    16c2:	10 92 46 01 	sts	0x0146, r1	;  0x800146
    16c6:	88 60       	ori	r24, 0x08	; 8
    16c8:	80 93 40 01 	sts	0x0140, r24	;  0x800140
    16cc:	80 91 40 01 	lds	r24, 0x0140	;  0x800140
    16d0:	82 fd       	sbrc	r24, 2
    16d2:	19 c0       	rjmp	.+50     	;  0x1706
    16d4:	20 91 42 01 	lds	r18, 0x0142	;  0x800142
    16d8:	30 91 43 01 	lds	r19, 0x0143	;  0x800143
    16dc:	a9 01       	movw	r20, r18
    16de:	4f 5f       	subi	r20, 0xFF	; 255
    16e0:	5f 4f       	sbci	r21, 0xFF	; 255
    16e2:	50 93 43 01 	sts	0x0143, r21	;  0x800143
    16e6:	40 93 42 01 	sts	0x0142, r20	;  0x800142
    16ea:	40 91 44 01 	lds	r20, 0x0144	;  0x800144
    16ee:	50 91 45 01 	lds	r21, 0x0145	;  0x800145
    16f2:	24 17       	cp	r18, r20
    16f4:	35 07       	cpc	r19, r21
    16f6:	38 f0       	brcs	.+14     	;  0x1706
    16f8:	10 92 43 01 	sts	0x0143, r1	;  0x800143
    16fc:	10 92 42 01 	sts	0x0142, r1	;  0x800142
    1700:	84 60       	ori	r24, 0x04	; 4
    1702:	80 93 40 01 	sts	0x0140, r24	;  0x800140
    1706:	81 d9       	rcall	.-3326   	;  0xa0a
    1708:	ff 91       	pop	r31
    170a:	ef 91       	pop	r30
    170c:	bf 91       	pop	r27
    170e:	af 91       	pop	r26
    1710:	9f 91       	pop	r25
    1712:	8f 91       	pop	r24
    1714:	7f 91       	pop	r23
    1716:	6f 91       	pop	r22
    1718:	5f 91       	pop	r21
    171a:	4f 91       	pop	r20
    171c:	3f 91       	pop	r19
    171e:	2f 91       	pop	r18
    1720:	0f 90       	pop	r0
    1722:	0f be       	out	0x3f, r0	; 63
    1724:	0f 90       	pop	r0
    1726:	1f 90       	pop	r1
    1728:	18 95       	reti
    172a:	0f 93       	push	r16
    172c:	1f 93       	push	r17
    172e:	8b 01       	movw	r16, r22
    1730:	9c 01       	movw	r18, r24
    1732:	dc 01       	movw	r26, r24
    1734:	cb 01       	movw	r24, r22
    1736:	90 5e       	subi	r25, 0xE0	; 224
    1738:	a3 4e       	sbci	r26, 0xE3	; 227
    173a:	bf 4f       	sbci	r27, 0xFF	; 255
    173c:	bc 01       	movw	r22, r24
    173e:	cd 01       	movw	r24, r26
    1740:	43 e0       	ldi	r20, 0x03	; 3
    1742:	66 0f       	add	r22, r22
    1744:	77 1f       	adc	r23, r23
    1746:	88 1f       	adc	r24, r24
    1748:	99 1f       	adc	r25, r25
    174a:	4a 95       	dec	r20
    174c:	d1 f7       	brne	.-12     	;  0x1742
    174e:	a9 01       	movw	r20, r18
    1750:	98 01       	movw	r18, r16
    1752:	e4 e0       	ldi	r30, 0x04	; 4
    1754:	22 0f       	add	r18, r18
    1756:	33 1f       	adc	r19, r19
    1758:	44 1f       	adc	r20, r20
    175a:	55 1f       	adc	r21, r21
    175c:	ea 95       	dec	r30
    175e:	d1 f7       	brne	.-12     	;  0x1754
    1760:	0e 94 cc 1b 	call	0x3798	;  0x3798
    1764:	21 50       	subi	r18, 0x01	; 1
    1766:	31 09       	sbc	r19, r1
    1768:	30 93 c5 00 	sts	0x00C5, r19	;  0x8000c5
    176c:	20 93 c4 00 	sts	0x00C4, r18	;  0x8000c4
    1770:	88 e9       	ldi	r24, 0x98	; 152
    1772:	80 93 c1 00 	sts	0x00C1, r24	;  0x8000c1
    1776:	1f 91       	pop	r17
    1778:	0f 91       	pop	r16
    177a:	08 95       	ret
    177c:	10 92 c5 00 	sts	0x00C5, r1	;  0x8000c5
    1780:	10 92 c4 00 	sts	0x00C4, r1	;  0x8000c4
    1784:	10 92 c1 00 	sts	0x00C1, r1	;  0x8000c1
    1788:	08 95       	ret
    178a:	42 9a       	sbi	0x08, 2	; 8
    178c:	43 98       	cbi	0x08, 3	; 8
    178e:	08 95       	ret
    1790:	5c 9a       	sbi	0x0b, 4	; 11
    1792:	5a 98       	cbi	0x0b, 2	; 11
    1794:	08 95       	ret
    1796:	5c 98       	cbi	0x0b, 4	; 11
    1798:	5a 9a       	sbi	0x0b, 2	; 11
    179a:	08 95       	ret
    179c:	96 e1       	ldi	r25, 0x16	; 22
    179e:	89 9f       	mul	r24, r25
    17a0:	a0 01       	movw	r20, r0
    17a2:	11 24       	eor	r1, r1
    17a4:	20 e0       	ldi	r18, 0x00	; 0
    17a6:	30 e0       	ldi	r19, 0x00	; 0
    17a8:	f9 01       	movw	r30, r18
    17aa:	e4 0f       	add	r30, r20
    17ac:	f5 1f       	adc	r31, r21
    17ae:	e9 53       	subi	r30, 0x39	; 57
    17b0:	fe 4f       	sbci	r31, 0xFE	; 254
    17b2:	90 e2       	ldi	r25, 0x20	; 32
    17b4:	90 83       	st	Z, r25
    17b6:	2f 5f       	subi	r18, 0xFF	; 255
    17b8:	3f 4f       	sbci	r19, 0xFF	; 255
    17ba:	26 31       	cpi	r18, 0x16	; 22
    17bc:	31 05       	cpc	r19, r1
    17be:	a1 f7       	brne	.-24     	;  0x17a8
    17c0:	08 95       	ret
    17c2:	8f 73       	andi	r24, 0x3F	; 63
    17c4:	80 93 c5 01 	sts	0x01C5, r24	;  0x8001c5
    17c8:	80 eb       	ldi	r24, 0xB0	; 176
    17ca:	80 93 c6 01 	sts	0x01C6, r24	;  0x8001c6
    17ce:	08 95       	ret
    17d0:	ef 92       	push	r14
    17d2:	ff 92       	push	r15
    17d4:	0f 93       	push	r16
    17d6:	1f 93       	push	r17
    17d8:	cf 93       	push	r28
    17da:	df 93       	push	r29
    17dc:	07 ec       	ldi	r16, 0xC7	; 199
    17de:	11 e0       	ldi	r17, 0x01	; 1
    17e0:	87 e7       	ldi	r24, 0x77	; 119
    17e2:	92 e0       	ldi	r25, 0x02	; 2
    17e4:	f8 01       	movw	r30, r16
    17e6:	20 e2       	ldi	r18, 0x20	; 32
    17e8:	21 93       	st	Z+, r18
    17ea:	8e 17       	cp	r24, r30
    17ec:	9f 07       	cpc	r25, r31
    17ee:	d9 f7       	brne	.-10     	;  0x17e6
    17f0:	e0 91 81 01 	lds	r30, 0x0181	;  0x800181
    17f4:	f0 91 82 01 	lds	r31, 0x0182	;  0x800182
    17f8:	e4 80       	ldd	r14, Z+4	; 0x04
    17fa:	f5 80       	ldd	r15, Z+5	; 0x05
    17fc:	c0 e0       	ldi	r28, 0x00	; 0
    17fe:	d0 e0       	ldi	r29, 0x00	; 0
    1800:	d7 01       	movw	r26, r14
    1802:	ed 91       	ld	r30, X+
    1804:	fc 91       	ld	r31, X
    1806:	ec 0f       	add	r30, r28
    1808:	fd 1f       	adc	r31, r29
    180a:	65 91       	lpm	r22, Z+
    180c:	74 91       	lpm	r23, Z
    180e:	c8 01       	movw	r24, r16
    1810:	0e 94 5a 1c 	call	0x38b4	;  0x38b4
    1814:	22 96       	adiw	r28, 0x02	; 2
    1816:	0a 5e       	subi	r16, 0xEA	; 234
    1818:	1f 4f       	sbci	r17, 0xFF	; 255
    181a:	c0 31       	cpi	r28, 0x10	; 16
    181c:	d1 05       	cpc	r29, r1
    181e:	81 f7       	brne	.-32     	;  0x1800
    1820:	cd b7       	in	r28, 0x3d	; 61
    1822:	de b7       	in	r29, 0x3e	; 62
    1824:	e6 e0       	ldi	r30, 0x06	; 6
    1826:	0c 94 1c 1c 	jmp	0x3838	;  0x3838
    182a:	0f 93       	push	r16
    182c:	1f 93       	push	r17
    182e:	cf 93       	push	r28
    1830:	df 93       	push	r29
    1832:	c8 2f       	mov	r28, r24
    1834:	80 91 e2 02 	lds	r24, 0x02E2	;  0x8002e2
    1838:	80 fd       	sbrc	r24, 0
    183a:	02 c0       	rjmp	.+4      	;  0x1840
    183c:	80 e2       	ldi	r24, 0x20	; 32
    183e:	01 c0       	rjmp	.+2      	;  0x1842
    1840:	84 e2       	ldi	r24, 0x24	; 36
    1842:	80 93 c8 01 	sts	0x01C8, r24	;  0x8001c8
    1846:	60 e0       	ldi	r22, 0x00	; 0
    1848:	8c 2f       	mov	r24, r28
    184a:	a7 da       	rcall	.-2738   	;  0xd9a
    184c:	00 91 c5 01 	lds	r16, 0x01C5	;  0x8001c5
    1850:	00 0f       	add	r16, r16
    1852:	00 0f       	add	r16, r16
    1854:	05 95       	asr	r16
    1856:	05 95       	asr	r16
    1858:	00 2e       	mov	r0, r16
    185a:	00 0c       	add	r0, r0
    185c:	11 0b       	sbc	r17, r17
    185e:	8c 2f       	mov	r24, r28
    1860:	90 e0       	ldi	r25, 0x00	; 0
    1862:	08 17       	cp	r16, r24
    1864:	19 07       	cpc	r17, r25
    1866:	09 f0       	breq	.+2      	;  0x186a
    1868:	52 c0       	rjmp	.+164    	;  0x190e
    186a:	c0 e0       	ldi	r28, 0x00	; 0
    186c:	2c 2f       	mov	r18, r28
    186e:	30 e0       	ldi	r19, 0x00	; 0
    1870:	80 91 c5 01 	lds	r24, 0x01C5	;  0x8001c5
    1874:	98 2f       	mov	r25, r24
    1876:	92 95       	swap	r25
    1878:	96 95       	lsr	r25
    187a:	96 95       	lsr	r25
    187c:	93 70       	andi	r25, 0x03	; 3
    187e:	80 91 c6 01 	lds	r24, 0x01C6	;  0x8001c6
    1882:	87 70       	andi	r24, 0x07	; 7
    1884:	88 0f       	add	r24, r24
    1886:	88 0f       	add	r24, r24
    1888:	89 2b       	or	r24, r25
    188a:	90 e0       	ldi	r25, 0x00	; 0
    188c:	28 17       	cp	r18, r24
    188e:	39 07       	cpc	r19, r25
    1890:	84 f4       	brge	.+32     	;  0x18b2
    1892:	cf 5f       	subi	r28, 0xFF	; 255
    1894:	46 e1       	ldi	r20, 0x16	; 22
    1896:	40 9f       	mul	r20, r16
    1898:	c0 01       	movw	r24, r0
    189a:	41 9f       	mul	r20, r17
    189c:	90 0d       	add	r25, r0
    189e:	11 24       	eor	r1, r1
    18a0:	89 53       	subi	r24, 0x39	; 57
    18a2:	9e 4f       	sbci	r25, 0xFE	; 254
    18a4:	fc 01       	movw	r30, r24
    18a6:	e2 0f       	add	r30, r18
    18a8:	f3 1f       	adc	r31, r19
    18aa:	60 e0       	ldi	r22, 0x00	; 0
    18ac:	80 81       	ld	r24, Z
    18ae:	44 da       	rcall	.-2936   	;  0xd38
    18b0:	dd cf       	rjmp	.-70     	;  0x186c
    18b2:	2c 2f       	mov	r18, r28
    18b4:	30 e0       	ldi	r19, 0x00	; 0
    18b6:	80 91 c6 01 	lds	r24, 0x01C6	;  0x8001c6
    18ba:	86 95       	lsr	r24
    18bc:	86 95       	lsr	r24
    18be:	86 95       	lsr	r24
    18c0:	90 e0       	ldi	r25, 0x00	; 0
    18c2:	28 17       	cp	r18, r24
    18c4:	39 07       	cpc	r19, r25
    18c6:	84 f4       	brge	.+32     	;  0x18e8
    18c8:	cf 5f       	subi	r28, 0xFF	; 255
    18ca:	46 e1       	ldi	r20, 0x16	; 22
    18cc:	40 9f       	mul	r20, r16
    18ce:	c0 01       	movw	r24, r0
    18d0:	41 9f       	mul	r20, r17
    18d2:	90 0d       	add	r25, r0
    18d4:	11 24       	eor	r1, r1
    18d6:	89 53       	subi	r24, 0x39	; 57
    18d8:	9e 4f       	sbci	r25, 0xFE	; 254
    18da:	fc 01       	movw	r30, r24
    18dc:	e2 0f       	add	r30, r18
    18de:	f3 1f       	adc	r31, r19
    18e0:	61 e0       	ldi	r22, 0x01	; 1
    18e2:	80 81       	ld	r24, Z
    18e4:	29 da       	rcall	.-2990   	;  0xd38
    18e6:	e5 cf       	rjmp	.-54     	;  0x18b2
    18e8:	c6 31       	cpi	r28, 0x16	; 22
    18ea:	18 f5       	brcc	.+70     	;  0x1932
    18ec:	d1 e0       	ldi	r29, 0x01	; 1
    18ee:	dc 0f       	add	r29, r28
    18f0:	86 e1       	ldi	r24, 0x16	; 22
    18f2:	80 9f       	mul	r24, r16
    18f4:	f0 01       	movw	r30, r0
    18f6:	81 9f       	mul	r24, r17
    18f8:	f0 0d       	add	r31, r0
    18fa:	11 24       	eor	r1, r1
    18fc:	e9 53       	subi	r30, 0x39	; 57
    18fe:	fe 4f       	sbci	r31, 0xFE	; 254
    1900:	ec 0f       	add	r30, r28
    1902:	f1 1d       	adc	r31, r1
    1904:	60 e0       	ldi	r22, 0x00	; 0
    1906:	80 81       	ld	r24, Z
    1908:	17 da       	rcall	.-3026   	;  0xd38
    190a:	cd 2f       	mov	r28, r29
    190c:	ed cf       	rjmp	.-38     	;  0x18e8
    190e:	86 e1       	ldi	r24, 0x16	; 22
    1910:	c8 9f       	mul	r28, r24
    1912:	80 01       	movw	r16, r0
    1914:	11 24       	eor	r1, r1
    1916:	c0 e0       	ldi	r28, 0x00	; 0
    1918:	d0 e0       	ldi	r29, 0x00	; 0
    191a:	fe 01       	movw	r30, r28
    191c:	e0 0f       	add	r30, r16
    191e:	f1 1f       	adc	r31, r17
    1920:	e9 53       	subi	r30, 0x39	; 57
    1922:	fe 4f       	sbci	r31, 0xFE	; 254
    1924:	60 e0       	ldi	r22, 0x00	; 0
    1926:	80 81       	ld	r24, Z
    1928:	07 da       	rcall	.-3058   	;  0xd38
    192a:	21 96       	adiw	r28, 0x01	; 1
    192c:	c6 31       	cpi	r28, 0x16	; 22
    192e:	d1 05       	cpc	r29, r1
    1930:	a1 f7       	brne	.-24     	;  0x191a
    1932:	df 91       	pop	r29
    1934:	cf 91       	pop	r28
    1936:	1f 91       	pop	r17
    1938:	0f 91       	pop	r16
    193a:	08 95       	ret
    193c:	cf 93       	push	r28
    193e:	c0 e0       	ldi	r28, 0x00	; 0
    1940:	8c 2f       	mov	r24, r28
    1942:	73 df       	rcall	.-282    	;  0x182a
    1944:	cf 5f       	subi	r28, 0xFF	; 255
    1946:	c8 30       	cpi	r28, 0x08	; 8
    1948:	d9 f7       	brne	.-10     	;  0x1940
    194a:	80 91 c5 01 	lds	r24, 0x01C5	;  0x8001c5
    194e:	8f 63       	ori	r24, 0x3F	; 63
    1950:	80 93 c5 01 	sts	0x01C5, r24	;  0x8001c5
    1954:	cf 91       	pop	r28
    1956:	08 95       	ret
    1958:	ef 92       	push	r14
    195a:	ff 92       	push	r15
    195c:	0f 93       	push	r16
    195e:	1f 93       	push	r17
    1960:	cf 93       	push	r28
    1962:	df 93       	push	r29
    1964:	c8 2f       	mov	r28, r24
    1966:	7b 01       	movw	r14, r22
    1968:	8a 01       	movw	r16, r20
    196a:	18 df       	rcall	.-464    	;  0x179c
    196c:	86 e1       	ldi	r24, 0x16	; 22
    196e:	c8 9f       	mul	r28, r24
    1970:	e0 01       	movw	r28, r0
    1972:	11 24       	eor	r1, r1
    1974:	b7 01       	movw	r22, r14
    1976:	ce 01       	movw	r24, r28
    1978:	89 53       	subi	r24, 0x39	; 57
    197a:	9e 4f       	sbci	r25, 0xFE	; 254
    197c:	0e 94 5a 1c 	call	0x38b4	;  0x38b4
    1980:	c8 01       	movw	r24, r16
    1982:	0e 94 61 1c 	call	0x38c2	;  0x38c2
    1986:	c8 1b       	sub	r28, r24
    1988:	d9 0b       	sbc	r29, r25
    198a:	ac 01       	movw	r20, r24
    198c:	b8 01       	movw	r22, r16
    198e:	ce 01       	movw	r24, r28
    1990:	83 52       	subi	r24, 0x23	; 35
    1992:	9e 4f       	sbci	r25, 0xFE	; 254
    1994:	0e 94 51 1c 	call	0x38a2	;  0x38a2
    1998:	cd b7       	in	r28, 0x3d	; 61
    199a:	de b7       	in	r29, 0x3e	; 62
    199c:	e6 e0       	ldi	r30, 0x06	; 6
    199e:	0c 94 1c 1c 	jmp	0x3838	;  0x3838
    19a2:	0f 93       	push	r16
    19a4:	1f 93       	push	r17
    19a6:	cf 93       	push	r28
    19a8:	c8 2f       	mov	r28, r24
    19aa:	8b 01       	movw	r16, r22
    19ac:	f7 de       	rcall	.-530    	;  0x179c
    19ae:	c8 01       	movw	r24, r16
    19b0:	0e 94 61 1c 	call	0x38c2	;  0x38c2
    19b4:	46 e1       	ldi	r20, 0x16	; 22
    19b6:	c4 9f       	mul	r28, r20
    19b8:	90 01       	movw	r18, r0
    19ba:	11 24       	eor	r1, r1
    19bc:	ac 01       	movw	r20, r24
    19be:	b8 01       	movw	r22, r16
    19c0:	c9 01       	movw	r24, r18
    19c2:	89 53       	subi	r24, 0x39	; 57
    19c4:	9e 4f       	sbci	r25, 0xFE	; 254
    19c6:	0e 94 51 1c 	call	0x38a2	;  0x38a2
    19ca:	cf 91       	pop	r28
    19cc:	1f 91       	pop	r17
    19ce:	0f 91       	pop	r16
    19d0:	08 95       	ret
    19d2:	aa e0       	ldi	r26, 0x0A	; 10
    19d4:	b0 e0       	ldi	r27, 0x00	; 0
    19d6:	ef ee       	ldi	r30, 0xEF	; 239
    19d8:	fc e0       	ldi	r31, 0x0C	; 12
    19da:	0c 94 fe 1b 	jmp	0x37fc	;  0x37fc
    19de:	6b 01       	movw	r12, r22
    19e0:	7c 01       	movw	r14, r24
    19e2:	63 ee       	ldi	r22, 0xE3	; 227
    19e4:	74 e0       	ldi	r23, 0x04	; 4
    19e6:	87 e7       	ldi	r24, 0x77	; 119
    19e8:	91 e0       	ldi	r25, 0x01	; 1
    19ea:	0e 94 5a 1c 	call	0x38b4	;  0x38b4
    19ee:	2a e0       	ldi	r18, 0x0A	; 10
    19f0:	8e 01       	movw	r16, r28
    19f2:	0f 5f       	subi	r16, 0xFF	; 255
    19f4:	1f 4f       	sbci	r17, 0xFF	; 255
    19f6:	a8 01       	movw	r20, r16
    19f8:	c7 01       	movw	r24, r14
    19fa:	b6 01       	movw	r22, r12
    19fc:	0e 94 92 1c 	call	0x3924	;  0x3924
    1a00:	f8 01       	movw	r30, r16
    1a02:	01 90       	ld	r0, Z+
    1a04:	00 20       	and	r0, r0
    1a06:	e9 f7       	brne	.-6      	;  0x1a02
    1a08:	31 97       	sbiw	r30, 0x01	; 1
    1a0a:	cf 01       	movw	r24, r30
    1a0c:	80 1b       	sub	r24, r16
    1a0e:	91 0b       	sbc	r25, r17
    1a10:	f8 01       	movw	r30, r16
    1a12:	e8 0f       	add	r30, r24
    1a14:	f9 1f       	adc	r31, r25
    1a16:	ad e7       	ldi	r26, 0x7D	; 125
    1a18:	b1 e0       	ldi	r27, 0x01	; 1
    1a1a:	21 e0       	ldi	r18, 0x01	; 1
    1a1c:	30 e0       	ldi	r19, 0x00	; 0
    1a1e:	31 97       	sbiw	r30, 0x01	; 1
    1a20:	82 17       	cp	r24, r18
    1a22:	93 07       	cpc	r25, r19
    1a24:	2c f0       	brlt	.+10     	;  0x1a30
    1a26:	40 81       	ld	r20, Z
    1a28:	4e 93       	st	-X, r20
    1a2a:	2f 5f       	subi	r18, 0xFF	; 255
    1a2c:	3f 4f       	sbci	r19, 0xFF	; 255
    1a2e:	f7 cf       	rjmp	.-18     	;  0x1a1e
    1a30:	86 e0       	ldi	r24, 0x06	; 6
    1a32:	e7 e7       	ldi	r30, 0x77	; 119
    1a34:	f1 e0       	ldi	r31, 0x01	; 1
    1a36:	a0 e1       	ldi	r26, 0x10	; 16
    1a38:	b2 e0       	ldi	r27, 0x02	; 2
    1a3a:	01 90       	ld	r0, Z+
    1a3c:	0d 92       	st	X+, r0
    1a3e:	8a 95       	dec	r24
    1a40:	e1 f7       	brne	.-8      	;  0x1a3a
    1a42:	2a 96       	adiw	r28, 0x0a	; 10
    1a44:	e8 e0       	ldi	r30, 0x08	; 8
    1a46:	0c 94 1a 1c 	jmp	0x3834	;  0x3834
    1a4a:	ab e0       	ldi	r26, 0x0B	; 11
    1a4c:	b0 e0       	ldi	r27, 0x00	; 0
    1a4e:	eb e2       	ldi	r30, 0x2B	; 43
    1a50:	fd e0       	ldi	r31, 0x0D	; 13
    1a52:	0c 94 fe 1b 	jmp	0x37fc	;  0x37fc
    1a56:	08 2f       	mov	r16, r24
    1a58:	6b 01       	movw	r12, r22
    1a5a:	ca 01       	movw	r24, r20
    1a5c:	b9 01       	movw	r22, r18
    1a5e:	2a e0       	ldi	r18, 0x0A	; 10
    1a60:	ae 01       	movw	r20, r28
    1a62:	4f 5f       	subi	r20, 0xFF	; 255
    1a64:	5f 4f       	sbci	r21, 0xFF	; 255
    1a66:	7a 01       	movw	r14, r20
    1a68:	0e 94 92 1c 	call	0x3924	;  0x3924
    1a6c:	80 2f       	mov	r24, r16
    1a6e:	96 de       	rcall	.-724    	;  0x179c
    1a70:	56 e1       	ldi	r21, 0x16	; 22
    1a72:	05 9f       	mul	r16, r21
    1a74:	80 01       	movw	r16, r0
    1a76:	11 24       	eor	r1, r1
    1a78:	b6 01       	movw	r22, r12
    1a7a:	c8 01       	movw	r24, r16
    1a7c:	89 53       	subi	r24, 0x39	; 57
    1a7e:	9e 4f       	sbci	r25, 0xFE	; 254
    1a80:	0e 94 5a 1c 	call	0x38b4	;  0x38b4
    1a84:	f7 01       	movw	r30, r14
    1a86:	01 90       	ld	r0, Z+
    1a88:	00 20       	and	r0, r0
    1a8a:	e9 f7       	brne	.-6      	;  0x1a86
    1a8c:	31 97       	sbiw	r30, 0x01	; 1
    1a8e:	af 01       	movw	r20, r30
    1a90:	4e 19       	sub	r20, r14
    1a92:	5f 09       	sbc	r21, r15
    1a94:	c8 01       	movw	r24, r16
    1a96:	84 1b       	sub	r24, r20
    1a98:	95 0b       	sbc	r25, r21
    1a9a:	b7 01       	movw	r22, r14
    1a9c:	83 52       	subi	r24, 0x23	; 35
    1a9e:	9e 4f       	sbci	r25, 0xFE	; 254
    1aa0:	0e 94 6a 1c 	call	0x38d4	;  0x38d4
    1aa4:	2b 96       	adiw	r28, 0x0b	; 11
    1aa6:	e8 e0       	ldi	r30, 0x08	; 8
    1aa8:	0c 94 1a 1c 	jmp	0x3834	;  0x3834
    1aac:	1f 93       	push	r17
    1aae:	cf 93       	push	r28
    1ab0:	df 93       	push	r29
    1ab2:	14 2f       	mov	r17, r20
    1ab4:	b1 dc       	rcall	.-1694   	;  0x1418
    1ab6:	c0 e0       	ldi	r28, 0x00	; 0
    1ab8:	d0 e0       	ldi	r29, 0x00	; 0
    1aba:	81 2f       	mov	r24, r17
    1abc:	bc dc       	rcall	.-1672   	;  0x1436
    1abe:	21 96       	adiw	r28, 0x01	; 1
    1ac0:	81 11       	cpse	r24, r1
    1ac2:	05 c0       	rjmp	.+10     	;  0x1ace
    1ac4:	c0 38       	cpi	r28, 0x80	; 128
    1ac6:	80 e7       	ldi	r24, 0x70	; 112
    1ac8:	d8 07       	cpc	r29, r24
    1aca:	b9 f7       	brne	.-18     	;  0x1aba
    1acc:	8f ef       	ldi	r24, 0xFF	; 255
    1ace:	df 91       	pop	r29
    1ad0:	cf 91       	pop	r28
    1ad2:	1f 91       	pop	r17
    1ad4:	08 95       	ret
    1ad6:	a0 e0       	ldi	r26, 0x00	; 0
    1ad8:	b0 e0       	ldi	r27, 0x00	; 0
    1ada:	e1 e7       	ldi	r30, 0x71	; 113
    1adc:	fd e0       	ldi	r31, 0x0D	; 13
    1ade:	0c 94 fe 1b 	jmp	0x37fc	;  0x37fc
    1ae2:	ec 01       	movw	r28, r24
    1ae4:	80 91 e3 02 	lds	r24, 0x02E3	;  0x8002e3
    1ae8:	82 ff       	sbrs	r24, 2
    1aea:	2a c0       	rjmp	.+84     	;  0x1b40
    1aec:	71 de       	rcall	.-798    	;  0x17d0
    1aee:	8b 81       	ldd	r24, Y+3	; 0x03
    1af0:	80 93 80 01 	sts	0x0180, r24	;  0x800180
    1af4:	10 92 7f 01 	sts	0x017F, r1	;  0x80017f
    1af8:	10 92 7e 01 	sts	0x017E, r1	;  0x80017e
    1afc:	00 91 f0 02 	lds	r16, 0x02F0	;  0x8002f0
    1b00:	10 91 f1 02 	lds	r17, 0x02F1	;  0x8002f1
    1b04:	c8 01       	movw	r24, r16
    1b06:	0e 94 61 1c 	call	0x38c2	;  0x38c2
    1b0a:	ac 01       	movw	r20, r24
    1b0c:	b8 01       	movw	r22, r16
    1b0e:	8a ef       	ldi	r24, 0xFA	; 250
    1b10:	91 e0       	ldi	r25, 0x01	; 1
    1b12:	0e 94 51 1c 	call	0x38a2	;  0x38a2
    1b16:	60 91 e8 02 	lds	r22, 0x02E8	;  0x8002e8
    1b1a:	70 91 e9 02 	lds	r23, 0x02E9	;  0x8002e9
    1b1e:	80 91 ea 02 	lds	r24, 0x02EA	;  0x8002ea
    1b22:	90 91 eb 02 	lds	r25, 0x02EB	;  0x8002eb
    1b26:	55 df       	rcall	.-342    	;  0x19d2
    1b28:	83 ec       	ldi	r24, 0xC3	; 195
    1b2a:	80 93 c5 01 	sts	0x01C5, r24	;  0x8001c5
    1b2e:	81 e4       	ldi	r24, 0x41	; 65
    1b30:	80 93 c6 01 	sts	0x01C6, r24	;  0x8001c6
    1b34:	03 df       	rcall	.-506    	;  0x193c
    1b36:	80 91 e3 02 	lds	r24, 0x02E3	;  0x8002e3
    1b3a:	8b 7f       	andi	r24, 0xFB	; 251
    1b3c:	80 93 e3 02 	sts	0x02E3, r24	;  0x8002e3
    1b40:	80 91 e3 02 	lds	r24, 0x02E3	;  0x8002e3
    1b44:	80 ff       	sbrs	r24, 0
    1b46:	58 c0       	rjmp	.+176    	;  0x1bf8
    1b48:	90 91 7e 01 	lds	r25, 0x017E	;  0x80017e
    1b4c:	91 11       	cpse	r25, r1
    1b4e:	09 c0       	rjmp	.+18     	;  0x1b62
    1b50:	80 91 7f 01 	lds	r24, 0x017F	;  0x80017f
    1b54:	8f 5f       	subi	r24, 0xFF	; 255
    1b56:	80 93 7f 01 	sts	0x017F, r24	;  0x80017f
    1b5a:	89 30       	cpi	r24, 0x09	; 9
    1b5c:	10 f0       	brcs	.+4      	;  0x1b62
    1b5e:	10 92 7f 01 	sts	0x017F, r1	;  0x80017f
    1b62:	e0 91 7f 01 	lds	r30, 0x017F	;  0x80017f
    1b66:	e6 30       	cpi	r30, 0x06	; 6
    1b68:	b1 f1       	breq	.+108    	;  0x1bd6
    1b6a:	48 f0       	brcs	.+18     	;  0x1b7e
    1b6c:	e7 30       	cpi	r30, 0x07	; 7
    1b6e:	c1 f1       	breq	.+112    	;  0x1be0
    1b70:	e8 30       	cpi	r30, 0x08	; 8
    1b72:	e1 f5       	brne	.+120    	;  0x1bec
    1b74:	87 e4       	ldi	r24, 0x47	; 71
    1b76:	80 93 c5 01 	sts	0x01C5, r24	;  0x8001c5
    1b7a:	8c ea       	ldi	r24, 0xAC	; 172
    1b7c:	35 c0       	rjmp	.+106    	;  0x1be8
    1b7e:	99 23       	and	r25, r25
    1b80:	a9 f0       	breq	.+42     	;  0x1bac
    1b82:	f0 e0       	ldi	r31, 0x00	; 0
    1b84:	e9 58       	subi	r30, 0x89	; 137
    1b86:	fe 4f       	sbci	r31, 0xFE	; 254
    1b88:	80 81       	ld	r24, Z
    1b8a:	8f 5f       	subi	r24, 0xFF	; 255
    1b8c:	80 83       	st	Z, r24
    1b8e:	8a 33       	cpi	r24, 0x3A	; 58
    1b90:	10 f0       	brcs	.+4      	;  0x1b96
    1b92:	80 e3       	ldi	r24, 0x30	; 48
    1b94:	80 83       	st	Z, r24
    1b96:	86 e0       	ldi	r24, 0x06	; 6
    1b98:	e7 e7       	ldi	r30, 0x77	; 119
    1b9a:	f1 e0       	ldi	r31, 0x01	; 1
    1b9c:	a0 e1       	ldi	r26, 0x10	; 16
    1b9e:	b2 e0       	ldi	r27, 0x02	; 2
    1ba0:	01 90       	ld	r0, Z+
    1ba2:	0d 92       	st	X+, r0
    1ba4:	8a 95       	dec	r24
    1ba6:	e1 f7       	brne	.-8      	;  0x1ba0
    1ba8:	c1 dc       	rcall	.-1662   	;  0x152c
    1baa:	20 c0       	rjmp	.+64     	;  0x1bec
    1bac:	87 e0       	ldi	r24, 0x07	; 7
    1bae:	8e 0f       	add	r24, r30
    1bb0:	98 2f       	mov	r25, r24
    1bb2:	92 95       	swap	r25
    1bb4:	99 0f       	add	r25, r25
    1bb6:	99 0f       	add	r25, r25
    1bb8:	90 7c       	andi	r25, 0xC0	; 192
    1bba:	93 60       	ori	r25, 0x03	; 3
    1bbc:	90 93 c5 01 	sts	0x01C5, r25	;  0x8001c5
    1bc0:	86 95       	lsr	r24
    1bc2:	86 95       	lsr	r24
    1bc4:	e8 5f       	subi	r30, 0xF8	; 248
    1bc6:	ee 0f       	add	r30, r30
    1bc8:	ee 0f       	add	r30, r30
    1bca:	ee 0f       	add	r30, r30
    1bcc:	87 70       	andi	r24, 0x07	; 7
    1bce:	e8 2b       	or	r30, r24
    1bd0:	e0 93 c6 01 	sts	0x01C6, r30	;  0x8001c6
    1bd4:	0b c0       	rjmp	.+22     	;  0x1bec
    1bd6:	85 ec       	ldi	r24, 0xC5	; 197
    1bd8:	80 93 c5 01 	sts	0x01C5, r24	;  0x8001c5
    1bdc:	81 e7       	ldi	r24, 0x71	; 113
    1bde:	04 c0       	rjmp	.+8      	;  0x1be8
    1be0:	87 e4       	ldi	r24, 0x47	; 71
    1be2:	80 93 c5 01 	sts	0x01C5, r24	;  0x8001c5
    1be6:	88 e4       	ldi	r24, 0x48	; 72
    1be8:	80 93 c6 01 	sts	0x01C6, r24	;  0x8001c6
    1bec:	a7 de       	rcall	.-690    	;  0x193c
    1bee:	80 91 e3 02 	lds	r24, 0x02E3	;  0x8002e3
    1bf2:	8e 7f       	andi	r24, 0xFE	; 254
    1bf4:	80 93 e3 02 	sts	0x02E3, r24	;  0x8002e3
    1bf8:	ac dc       	rcall	.-1704   	;  0x1552
    1bfa:	88 23       	and	r24, r24
    1bfc:	31 f1       	breq	.+76     	;  0x1c4a
    1bfe:	80 91 7e 01 	lds	r24, 0x017E	;  0x80017e
    1c02:	88 23       	and	r24, r24
    1c04:	11 f1       	breq	.+68     	;  0x1c4a
    1c06:	90 91 76 01 	lds	r25, 0x0176	;  0x800176
    1c0a:	81 e0       	ldi	r24, 0x01	; 1
    1c0c:	89 27       	eor	r24, r25
    1c0e:	80 93 76 01 	sts	0x0176, r24	;  0x800176
    1c12:	88 23       	and	r24, r24
    1c14:	c9 f0       	breq	.+50     	;  0x1c48
    1c16:	80 91 7f 01 	lds	r24, 0x017F	;  0x80017f
    1c1a:	97 e0       	ldi	r25, 0x07	; 7
    1c1c:	98 0f       	add	r25, r24
    1c1e:	29 2f       	mov	r18, r25
    1c20:	22 95       	swap	r18
    1c22:	22 0f       	add	r18, r18
    1c24:	22 0f       	add	r18, r18
    1c26:	20 7c       	andi	r18, 0xC0	; 192
    1c28:	23 60       	ori	r18, 0x03	; 3
    1c2a:	20 93 c5 01 	sts	0x01C5, r18	;  0x8001c5
    1c2e:	29 2f       	mov	r18, r25
    1c30:	26 95       	lsr	r18
    1c32:	26 95       	lsr	r18
    1c34:	88 5f       	subi	r24, 0xF8	; 248
    1c36:	98 2f       	mov	r25, r24
    1c38:	99 0f       	add	r25, r25
    1c3a:	99 0f       	add	r25, r25
    1c3c:	99 0f       	add	r25, r25
    1c3e:	82 2f       	mov	r24, r18
    1c40:	87 70       	andi	r24, 0x07	; 7
    1c42:	89 2b       	or	r24, r25
    1c44:	80 93 c6 01 	sts	0x01C6, r24	;  0x8001c6
    1c48:	79 de       	rcall	.-782    	;  0x193c
    1c4a:	80 91 e3 02 	lds	r24, 0x02E3	;  0x8002e3
    1c4e:	81 ff       	sbrs	r24, 1
    1c50:	8d c0       	rjmp	.+282    	;  0x1d6c
    1c52:	80 91 7f 01 	lds	r24, 0x017F	;  0x80017f
    1c56:	86 30       	cpi	r24, 0x06	; 6
    1c58:	59 f1       	breq	.+86     	;  0x1cb0
    1c5a:	30 f0       	brcs	.+12     	;  0x1c68
    1c5c:	87 30       	cpi	r24, 0x07	; 7
    1c5e:	09 f4       	brne	.+2      	;  0x1c62
    1c60:	75 c0       	rjmp	.+234    	;  0x1d4c
    1c62:	88 30       	cpi	r24, 0x08	; 8
    1c64:	89 f1       	breq	.+98     	;  0x1cc8
    1c66:	7d c0       	rjmp	.+250    	;  0x1d62
    1c68:	81 e0       	ldi	r24, 0x01	; 1
    1c6a:	90 91 7e 01 	lds	r25, 0x017E	;  0x80017e
    1c6e:	91 11       	cpse	r25, r1
    1c70:	80 e0       	ldi	r24, 0x00	; 0
    1c72:	80 93 7e 01 	sts	0x017E, r24	;  0x80017e
    1c76:	80 e9       	ldi	r24, 0x90	; 144
    1c78:	91 e0       	ldi	r25, 0x01	; 1
    1c7a:	62 dc       	rcall	.-1852   	;  0x1540
    1c7c:	80 91 7f 01 	lds	r24, 0x017F	;  0x80017f
    1c80:	97 e0       	ldi	r25, 0x07	; 7
    1c82:	98 0f       	add	r25, r24
    1c84:	29 2f       	mov	r18, r25
    1c86:	22 95       	swap	r18
    1c88:	22 0f       	add	r18, r18
    1c8a:	22 0f       	add	r18, r18
    1c8c:	20 7c       	andi	r18, 0xC0	; 192
    1c8e:	23 60       	ori	r18, 0x03	; 3
    1c90:	20 93 c5 01 	sts	0x01C5, r18	;  0x8001c5
    1c94:	29 2f       	mov	r18, r25
    1c96:	26 95       	lsr	r18
    1c98:	26 95       	lsr	r18
    1c9a:	88 5f       	subi	r24, 0xF8	; 248
    1c9c:	98 2f       	mov	r25, r24
    1c9e:	99 0f       	add	r25, r25
    1ca0:	99 0f       	add	r25, r25
    1ca2:	99 0f       	add	r25, r25
    1ca4:	82 2f       	mov	r24, r18
    1ca6:	87 70       	andi	r24, 0x07	; 7
    1ca8:	89 2b       	or	r24, r25
    1caa:	80 93 c6 01 	sts	0x01C6, r24	;  0x8001c6
    1cae:	09 c0       	rjmp	.+18     	;  0x1cc2
    1cb0:	60 91 e4 02 	lds	r22, 0x02E4	;  0x8002e4
    1cb4:	70 91 e5 02 	lds	r23, 0x02E5	;  0x8002e5
    1cb8:	80 91 e6 02 	lds	r24, 0x02E6	;  0x8002e6
    1cbc:	90 91 e7 02 	lds	r25, 0x02E7	;  0x8002e7
    1cc0:	88 de       	rcall	.-752    	;  0x19d2
    1cc2:	83 e0       	ldi	r24, 0x03	; 3
    1cc4:	b2 dd       	rcall	.-1180   	;  0x182a
    1cc6:	4d c0       	rjmp	.+154    	;  0x1d62
    1cc8:	80 91 ef 02 	lds	r24, 0x02EF	;  0x8002ef
    1ccc:	81 30       	cpi	r24, 0x01	; 1
    1cce:	b9 f4       	brne	.+46     	;  0x1cfe
    1cd0:	87 e7       	ldi	r24, 0x77	; 119
    1cd2:	91 e0       	ldi	r25, 0x01	; 1
    1cd4:	0e 94 2b 1c 	call	0x3856	;  0x3856
    1cd8:	0e 94 c9 1a 	call	0x3592	;  0x3592
    1cdc:	6b 01       	movw	r12, r22
    1cde:	7c 01       	movw	r14, r24
    1ce0:	80 91 ee 02 	lds	r24, 0x02EE	;  0x8002ee
    1ce4:	40 91 80 01 	lds	r20, 0x0180	;  0x800180
    1ce8:	b7 01       	movw	r22, r14
    1cea:	90 e0       	ldi	r25, 0x00	; 0
    1cec:	df de       	rcall	.-578    	;  0x1aac
    1cee:	80 91 ee 02 	lds	r24, 0x02EE	;  0x8002ee
    1cf2:	90 e0       	ldi	r25, 0x00	; 0
    1cf4:	40 91 80 01 	lds	r20, 0x0180	;  0x800180
    1cf8:	b6 01       	movw	r22, r12
    1cfa:	01 96       	adiw	r24, 0x01	; 1
    1cfc:	24 c0       	rjmp	.+72     	;  0x1d46
    1cfe:	81 11       	cpse	r24, r1
    1d00:	30 c0       	rjmp	.+96     	;  0x1d62
    1d02:	87 e7       	ldi	r24, 0x77	; 119
    1d04:	91 e0       	ldi	r25, 0x01	; 1
    1d06:	0e 94 2b 1c 	call	0x3856	;  0x3856
    1d0a:	00 91 ec 02 	lds	r16, 0x02EC	;  0x8002ec
    1d0e:	10 91 ed 02 	lds	r17, 0x02ED	;  0x8002ed
    1d12:	20 e0       	ldi	r18, 0x00	; 0
    1d14:	30 e0       	ldi	r19, 0x00	; 0
    1d16:	06 17       	cp	r16, r22
    1d18:	17 07       	cpc	r17, r23
    1d1a:	28 07       	cpc	r18, r24
    1d1c:	39 07       	cpc	r19, r25
    1d1e:	10 f4       	brcc	.+4      	;  0x1d24
    1d20:	c9 01       	movw	r24, r18
    1d22:	b8 01       	movw	r22, r16
    1d24:	20 91 ee 02 	lds	r18, 0x02EE	;  0x8002ee
    1d28:	40 91 80 01 	lds	r20, 0x0180	;  0x800180
    1d2c:	82 2f       	mov	r24, r18
    1d2e:	90 e0       	ldi	r25, 0x00	; 0
    1d30:	bd de       	rcall	.-646    	;  0x1aac
    1d32:	90 91 ee 02 	lds	r25, 0x02EE	;  0x8002ee
    1d36:	96 31       	cpi	r25, 0x16	; 22
    1d38:	39 f4       	brne	.+14     	;  0x1d48
    1d3a:	40 91 80 01 	lds	r20, 0x0180	;  0x800180
    1d3e:	61 e0       	ldi	r22, 0x01	; 1
    1d40:	70 e0       	ldi	r23, 0x00	; 0
    1d42:	85 e1       	ldi	r24, 0x15	; 21
    1d44:	90 e0       	ldi	r25, 0x00	; 0
    1d46:	b2 de       	rcall	.-668    	;  0x1aac
    1d48:	88 23       	and	r24, r24
    1d4a:	59 f0       	breq	.+22     	;  0x1d62
    1d4c:	8b e9       	ldi	r24, 0x9B	; 155
    1d4e:	91 e0       	ldi	r25, 0x01	; 1
    1d50:	90 93 82 01 	sts	0x0182, r25	;  0x800182
    1d54:	80 93 81 01 	sts	0x0181, r24	;  0x800181
    1d58:	80 91 e3 02 	lds	r24, 0x02E3	;  0x8002e3
    1d5c:	84 60       	ori	r24, 0x04	; 4
    1d5e:	80 93 e3 02 	sts	0x02E3, r24	;  0x8002e3
    1d62:	80 91 e3 02 	lds	r24, 0x02E3	;  0x8002e3
    1d66:	8d 7f       	andi	r24, 0xFD	; 253
    1d68:	80 93 e3 02 	sts	0x02E3, r24	;  0x8002e3
    1d6c:	cd b7       	in	r28, 0x3d	; 61
    1d6e:	de b7       	in	r29, 0x3e	; 62
    1d70:	e8 e0       	ldi	r30, 0x08	; 8
    1d72:	0c 94 1a 1c 	jmp	0x3834	;  0x3834
    1d76:	cf 92       	push	r12
    1d78:	df 92       	push	r13
    1d7a:	ef 92       	push	r14
    1d7c:	ff 92       	push	r15
    1d7e:	cf 93       	push	r28
    1d80:	df 93       	push	r29
    1d82:	ec 01       	movw	r28, r24
    1d84:	80 91 e3 02 	lds	r24, 0x02E3	;  0x8002e3
    1d88:	82 ff       	sbrs	r24, 2
    1d8a:	13 c0       	rjmp	.+38     	;  0x1db2
    1d8c:	21 dd       	rcall	.-1470   	;  0x17d0
    1d8e:	8b 81       	ldd	r24, Y+3	; 0x03
    1d90:	80 93 75 01 	sts	0x0175, r24	;  0x800175
    1d94:	80 91 11 01 	lds	r24, 0x0111	;  0x800111
    1d98:	81 50       	subi	r24, 0x01	; 1
    1d9a:	80 93 74 01 	sts	0x0174, r24	;  0x800174
    1d9e:	80 91 e3 02 	lds	r24, 0x02E3	;  0x8002e3
    1da2:	81 60       	ori	r24, 0x01	; 1
    1da4:	80 93 e3 02 	sts	0x02E3, r24	;  0x8002e3
    1da8:	80 91 e3 02 	lds	r24, 0x02E3	;  0x8002e3
    1dac:	8b 7f       	andi	r24, 0xFB	; 251
    1dae:	80 93 e3 02 	sts	0x02E3, r24	;  0x8002e3
    1db2:	80 91 e3 02 	lds	r24, 0x02E3	;  0x8002e3
    1db6:	80 ff       	sbrs	r24, 0
    1db8:	3a c0       	rjmp	.+116    	;  0x1e2e
    1dba:	80 91 74 01 	lds	r24, 0x0174	;  0x800174
    1dbe:	8f 5f       	subi	r24, 0xFF	; 255
    1dc0:	80 93 74 01 	sts	0x0174, r24	;  0x800174
    1dc4:	87 30       	cpi	r24, 0x07	; 7
    1dc6:	10 f0       	brcs	.+4      	;  0x1dcc
    1dc8:	10 92 74 01 	sts	0x0174, r1	;  0x800174
    1dcc:	e0 91 74 01 	lds	r30, 0x0174	;  0x800174
    1dd0:	8e 2f       	mov	r24, r30
    1dd2:	90 e0       	ldi	r25, 0x00	; 0
    1dd4:	87 30       	cpi	r24, 0x07	; 7
    1dd6:	91 05       	cpc	r25, r1
    1dd8:	20 f5       	brcc	.+72     	;  0x1e22
    1dda:	fc 01       	movw	r30, r24
    1ddc:	ec 5c       	subi	r30, 0xCC	; 204
    1dde:	ff 4f       	sbci	r31, 0xFF	; 255
    1de0:	0c 94 ee 1b 	jmp	0x37dc	;  0x37dc
    1de4:	82 e8       	ldi	r24, 0x82	; 130
    1de6:	80 93 c5 01 	sts	0x01C5, r24	;  0x8001c5
    1dea:	80 e3       	ldi	r24, 0x30	; 48
    1dec:	04 c0       	rjmp	.+8      	;  0x1df6
    1dee:	82 e4       	ldi	r24, 0x42	; 66
    1df0:	80 93 c5 01 	sts	0x01C5, r24	;  0x8001c5
    1df4:	82 e7       	ldi	r24, 0x72	; 114
    1df6:	80 93 c6 01 	sts	0x01C6, r24	;  0x8001c6
    1dfa:	13 c0       	rjmp	.+38     	;  0x1e22
    1dfc:	82 ec       	ldi	r24, 0xC2	; 194
    1dfe:	80 93 c5 01 	sts	0x01C5, r24	;  0x8001c5
    1e02:	83 ea       	ldi	r24, 0xA3	; 163
    1e04:	f8 cf       	rjmp	.-16     	;  0x1df6
    1e06:	83 e8       	ldi	r24, 0x83	; 131
    1e08:	80 93 c5 01 	sts	0x01C5, r24	;  0x8001c5
    1e0c:	88 e3       	ldi	r24, 0x38	; 56
    1e0e:	f3 cf       	rjmp	.-26     	;  0x1df6
    1e10:	83 e4       	ldi	r24, 0x43	; 67
    1e12:	ee cf       	rjmp	.-36     	;  0x1df0
    1e14:	83 ec       	ldi	r24, 0xC3	; 195
    1e16:	80 93 c5 01 	sts	0x01C5, r24	;  0x8001c5
    1e1a:	8b ea       	ldi	r24, 0xAB	; 171
    1e1c:	ec cf       	rjmp	.-40     	;  0x1df6
    1e1e:	87 e0       	ldi	r24, 0x07	; 7
    1e20:	d0 dc       	rcall	.-1632   	;  0x17c2
    1e22:	8c dd       	rcall	.-1256   	;  0x193c
    1e24:	80 91 e3 02 	lds	r24, 0x02E3	;  0x8002e3
    1e28:	8e 7f       	andi	r24, 0xFE	; 254
    1e2a:	80 93 e3 02 	sts	0x02E3, r24	;  0x8002e3
    1e2e:	80 91 e3 02 	lds	r24, 0x02E3	;  0x8002e3
    1e32:	81 ff       	sbrs	r24, 1
    1e34:	34 c0       	rjmp	.+104    	;  0x1e9e
    1e36:	e0 91 74 01 	lds	r30, 0x0174	;  0x800174
    1e3a:	e6 30       	cpi	r30, 0x06	; 6
    1e3c:	18 f0       	brcs	.+6      	;  0x1e44
    1e3e:	e6 30       	cpi	r30, 0x06	; 6
    1e40:	f1 f0       	breq	.+60     	;  0x1e7e
    1e42:	28 c0       	rjmp	.+80     	;  0x1e94
    1e44:	e0 93 11 01 	sts	0x0111, r30	;  0x800111
    1e48:	84 e0       	ldi	r24, 0x04	; 4
    1e4a:	e8 9f       	mul	r30, r24
    1e4c:	f0 01       	movw	r30, r0
    1e4e:	11 24       	eor	r1, r1
    1e50:	e8 5e       	subi	r30, 0xE8	; 232
    1e52:	fe 4f       	sbci	r31, 0xFE	; 254
    1e54:	c0 80       	ld	r12, Z
    1e56:	d1 80       	ldd	r13, Z+1	; 0x01
    1e58:	e2 80       	ldd	r14, Z+2	; 0x02
    1e5a:	f3 80       	ldd	r15, Z+3	; 0x03
    1e5c:	b7 01       	movw	r22, r14
    1e5e:	88 27       	eor	r24, r24
    1e60:	99 27       	eor	r25, r25
    1e62:	40 91 75 01 	lds	r20, 0x0175	;  0x800175
    1e66:	80 e2       	ldi	r24, 0x20	; 32
    1e68:	90 e0       	ldi	r25, 0x00	; 0
    1e6a:	20 de       	rcall	.-960    	;  0x1aac
    1e6c:	40 91 75 01 	lds	r20, 0x0175	;  0x800175
    1e70:	b6 01       	movw	r22, r12
    1e72:	81 e2       	ldi	r24, 0x21	; 33
    1e74:	90 e0       	ldi	r25, 0x00	; 0
    1e76:	1a de       	rcall	.-972    	;  0x1aac
    1e78:	c7 01       	movw	r24, r14
    1e7a:	b6 01       	movw	r22, r12
    1e7c:	56 dc       	rcall	.-1876   	;  0x172a
    1e7e:	85 e9       	ldi	r24, 0x95	; 149
    1e80:	91 e0       	ldi	r25, 0x01	; 1
    1e82:	90 93 82 01 	sts	0x0182, r25	;  0x800182
    1e86:	80 93 81 01 	sts	0x0181, r24	;  0x800181
    1e8a:	80 91 e3 02 	lds	r24, 0x02E3	;  0x8002e3
    1e8e:	84 60       	ori	r24, 0x04	; 4
    1e90:	80 93 e3 02 	sts	0x02E3, r24	;  0x8002e3
    1e94:	80 91 e3 02 	lds	r24, 0x02E3	;  0x8002e3
    1e98:	8d 7f       	andi	r24, 0xFD	; 253
    1e9a:	80 93 e3 02 	sts	0x02E3, r24	;  0x8002e3
    1e9e:	df 91       	pop	r29
    1ea0:	cf 91       	pop	r28
    1ea2:	ff 90       	pop	r15
    1ea4:	ef 90       	pop	r14
    1ea6:	df 90       	pop	r13
    1ea8:	cf 90       	pop	r12
    1eaa:	08 95       	ret
    1eac:	1f 93       	push	r17
    1eae:	cf 93       	push	r28
    1eb0:	df 93       	push	r29
    1eb2:	18 2f       	mov	r17, r24
    1eb4:	c6 2f       	mov	r28, r22
    1eb6:	d4 2f       	mov	r29, r20
    1eb8:	4c db       	rcall	.-2408   	;  0x1552
    1eba:	88 23       	and	r24, r24
    1ebc:	29 f0       	breq	.+10     	;  0x1ec8
    1ebe:	4d 2f       	mov	r20, r29
    1ec0:	6c 2f       	mov	r22, r28
    1ec2:	81 2f       	mov	r24, r17
    1ec4:	90 e0       	ldi	r25, 0x00	; 0
    1ec6:	9c da       	rcall	.-2760   	;  0x1400
    1ec8:	6d 2f       	mov	r22, r29
    1eca:	8c 2f       	mov	r24, r28
    1ecc:	90 e0       	ldi	r25, 0x00	; 0
    1ece:	b8 da       	rcall	.-2704   	;  0x1440
    1ed0:	df 91       	pop	r29
    1ed2:	cf 91       	pop	r28
    1ed4:	1f 91       	pop	r17
    1ed6:	08 95       	ret
    1ed8:	0f 93       	push	r16
    1eda:	1f 93       	push	r17
    1edc:	cf 93       	push	r28
    1ede:	df 93       	push	r29
    1ee0:	d6 2f       	mov	r29, r22
    1ee2:	89 01       	movw	r16, r18
    1ee4:	61 e0       	ldi	r22, 0x01	; 1
    1ee6:	e2 df       	rcall	.-60     	;  0x1eac
    1ee8:	c8 2f       	mov	r28, r24
    1eea:	88 23       	and	r24, r24
    1eec:	61 f0       	breq	.+24     	;  0x1f06
    1eee:	8f ef       	ldi	r24, 0xFF	; 255
    1ef0:	8d 0f       	add	r24, r29
    1ef2:	87 30       	cpi	r24, 0x07	; 7
    1ef4:	40 f4       	brcc	.+16     	;  0x1f06
    1ef6:	80 e0       	ldi	r24, 0x00	; 0
    1ef8:	a8 da       	rcall	.-2736   	;  0x144a
    1efa:	9c 01       	movw	r18, r24
    1efc:	40 e0       	ldi	r20, 0x00	; 0
    1efe:	50 e0       	ldi	r21, 0x00	; 0
    1f00:	b8 01       	movw	r22, r16
    1f02:	8d 2f       	mov	r24, r29
    1f04:	a2 dd       	rcall	.-1212   	;  0x1a4a
    1f06:	8c 2f       	mov	r24, r28
    1f08:	df 91       	pop	r29
    1f0a:	cf 91       	pop	r28
    1f0c:	1f 91       	pop	r17
    1f0e:	0f 91       	pop	r16
    1f10:	08 95       	ret
    1f12:	a6 e0       	ldi	r26, 0x06	; 6
    1f14:	b0 e0       	ldi	r27, 0x00	; 0
    1f16:	ef e8       	ldi	r30, 0x8F	; 143
    1f18:	ff e0       	ldi	r31, 0x0F	; 15
    1f1a:	0c 94 01 1c 	jmp	0x3802	;  0x3802
    1f1e:	8c 01       	movw	r16, r24
    1f20:	80 91 e3 02 	lds	r24, 0x02E3	;  0x8002e3
    1f24:	82 ff       	sbrs	r24, 2
    1f26:	11 c0       	rjmp	.+34     	;  0x1f4a
    1f28:	10 92 71 01 	sts	0x0171, r1	;  0x800171
    1f2c:	51 dc       	rcall	.-1886   	;  0x17d0
    1f2e:	81 e0       	ldi	r24, 0x01	; 1
    1f30:	80 93 70 01 	sts	0x0170, r24	;  0x800170
    1f34:	82 e0       	ldi	r24, 0x02	; 2
    1f36:	80 93 6f 01 	sts	0x016F, r24	;  0x80016f
    1f3a:	81 e0       	ldi	r24, 0x01	; 1
    1f3c:	42 dc       	rcall	.-1916   	;  0x17c2
    1f3e:	fe dc       	rcall	.-1540   	;  0x193c
    1f40:	80 91 e3 02 	lds	r24, 0x02E3	;  0x8002e3
    1f44:	8b 7f       	andi	r24, 0xFB	; 251
    1f46:	80 93 e3 02 	sts	0x02E3, r24	;  0x8002e3
    1f4a:	80 91 6f 01 	lds	r24, 0x016F	;  0x80016f
    1f4e:	ff 24       	eor	r15, r15
    1f50:	fa 94       	dec	r15
    1f52:	f8 0e       	add	r15, r24
    1f54:	40 91 71 01 	lds	r20, 0x0171	;  0x800171
    1f58:	44 23       	and	r20, r20
    1f5a:	09 f4       	brne	.+2      	;  0x1f5e
    1f5c:	8a c0       	rjmp	.+276    	;  0x2072
    1f5e:	83 30       	cpi	r24, 0x03	; 3
    1f60:	41 f1       	breq	.+80     	;  0x1fb2
    1f62:	60 f4       	brcc	.+24     	;  0x1f7c
    1f64:	88 23       	and	r24, r24
    1f66:	91 f0       	breq	.+36     	;  0x1f8c
    1f68:	82 30       	cpi	r24, 0x02	; 2
    1f6a:	09 f0       	breq	.+2      	;  0x1f6e
    1f6c:	7c c0       	rjmp	.+248    	;  0x2066
    1f6e:	24 2f       	mov	r18, r20
    1f70:	30 e0       	ldi	r19, 0x00	; 0
    1f72:	40 e0       	ldi	r20, 0x00	; 0
    1f74:	50 e0       	ldi	r21, 0x00	; 0
    1f76:	6b ee       	ldi	r22, 0xEB	; 235
    1f78:	76 e0       	ldi	r23, 0x06	; 6
    1f7a:	27 c0       	rjmp	.+78     	;  0x1fca
    1f7c:	85 30       	cpi	r24, 0x05	; 5
    1f7e:	09 f4       	brne	.+2      	;  0x1f82
    1f80:	3b c0       	rjmp	.+118    	;  0x1ff8
    1f82:	30 f1       	brcs	.+76     	;  0x1fd0
    1f84:	86 30       	cpi	r24, 0x06	; 6
    1f86:	09 f4       	brne	.+2      	;  0x1f8a
    1f88:	62 c0       	rjmp	.+196    	;  0x204e
    1f8a:	6d c0       	rjmp	.+218    	;  0x2066
    1f8c:	2f ef       	ldi	r18, 0xFF	; 255
    1f8e:	8f e3       	ldi	r24, 0x3F	; 63
    1f90:	92 e0       	ldi	r25, 0x02	; 2
    1f92:	21 50       	subi	r18, 0x01	; 1
    1f94:	80 40       	sbci	r24, 0x00	; 0
    1f96:	90 40       	sbci	r25, 0x00	; 0
    1f98:	e1 f7       	brne	.-8      	;  0x1f92
    1f9a:	00 c0       	rjmp	.+0      	;  0x1f9c
    1f9c:	00 00       	nop
    1f9e:	60 91 6e 01 	lds	r22, 0x016E	;  0x80016e
    1fa2:	70 e0       	ldi	r23, 0x00	; 0
    1fa4:	80 91 6d 01 	lds	r24, 0x016D	;  0x80016d
    1fa8:	40 91 71 01 	lds	r20, 0x0171	;  0x800171
    1fac:	90 e0       	ldi	r25, 0x00	; 0
    1fae:	7e dd       	rcall	.-1284   	;  0x1aac
    1fb0:	5e c0       	rjmp	.+188    	;  0x206e
    1fb2:	62 e0       	ldi	r22, 0x02	; 2
    1fb4:	80 e2       	ldi	r24, 0x20	; 32
    1fb6:	7a df       	rcall	.-268    	;  0x1eac
    1fb8:	88 23       	and	r24, r24
    1fba:	09 f4       	brne	.+2      	;  0x1fbe
    1fbc:	63 c0       	rjmp	.+198    	;  0x2084
    1fbe:	80 e0       	ldi	r24, 0x00	; 0
    1fc0:	79 da       	rcall	.-2830   	;  0x14b4
    1fc2:	9b 01       	movw	r18, r22
    1fc4:	ac 01       	movw	r20, r24
    1fc6:	62 ee       	ldi	r22, 0xE2	; 226
    1fc8:	76 e0       	ldi	r23, 0x06	; 6
    1fca:	8f 2d       	mov	r24, r15
    1fcc:	3e dd       	rcall	.-1412   	;  0x1a4a
    1fce:	39 c0       	rjmp	.+114    	;  0x2042
    1fd0:	61 e0       	ldi	r22, 0x01	; 1
    1fd2:	8b e1       	ldi	r24, 0x1B	; 27
    1fd4:	6b df       	rcall	.-298    	;  0x1eac
    1fd6:	88 23       	and	r24, r24
    1fd8:	09 f4       	brne	.+2      	;  0x1fdc
    1fda:	54 c0       	rjmp	.+168    	;  0x2084
    1fdc:	80 e0       	ldi	r24, 0x00	; 0
    1fde:	35 da       	rcall	.-2966   	;  0x144a
    1fe0:	80 93 6c 01 	sts	0x016C, r24	;  0x80016c
    1fe4:	81 30       	cpi	r24, 0x01	; 1
    1fe6:	19 f0       	breq	.+6      	;  0x1fee
    1fe8:	4f e1       	ldi	r20, 0x1F	; 31
    1fea:	57 e0       	ldi	r21, 0x07	; 7
    1fec:	02 c0       	rjmp	.+4      	;  0x1ff2
    1fee:	44 e2       	ldi	r20, 0x24	; 36
    1ff0:	57 e0       	ldi	r21, 0x07	; 7
    1ff2:	64 ed       	ldi	r22, 0xD4	; 212
    1ff4:	76 e0       	ldi	r23, 0x06	; 6
    1ff6:	23 c0       	rjmp	.+70     	;  0x203e
    1ff8:	61 e0       	ldi	r22, 0x01	; 1
    1ffa:	89 e1       	ldi	r24, 0x19	; 25
    1ffc:	57 df       	rcall	.-338    	;  0x1eac
    1ffe:	88 23       	and	r24, r24
    2000:	09 f4       	brne	.+2      	;  0x2004
    2002:	40 c0       	rjmp	.+128    	;  0x2084
    2004:	86 e0       	ldi	r24, 0x06	; 6
    2006:	e2 e1       	ldi	r30, 0x12	; 18
    2008:	f1 e0       	ldi	r31, 0x01	; 1
    200a:	de 01       	movw	r26, r28
    200c:	11 96       	adiw	r26, 0x01	; 1
    200e:	01 90       	ld	r0, Z+
    2010:	0d 92       	st	X+, r0
    2012:	8a 95       	dec	r24
    2014:	e1 f7       	brne	.-8      	;  0x200e
    2016:	80 e0       	ldi	r24, 0x00	; 0
    2018:	18 da       	rcall	.-3024   	;  0x144a
    201a:	80 93 6b 01 	sts	0x016B, r24	;  0x80016b
    201e:	83 30       	cpi	r24, 0x03	; 3
    2020:	80 f4       	brcc	.+32     	;  0x2042
    2022:	fc 01       	movw	r30, r24
    2024:	ff 27       	eor	r31, r31
    2026:	ee 0f       	add	r30, r30
    2028:	ff 1f       	adc	r31, r31
    202a:	81 e0       	ldi	r24, 0x01	; 1
    202c:	90 e0       	ldi	r25, 0x00	; 0
    202e:	8c 0f       	add	r24, r28
    2030:	9d 1f       	adc	r25, r29
    2032:	e8 0f       	add	r30, r24
    2034:	f9 1f       	adc	r31, r25
    2036:	40 81       	ld	r20, Z
    2038:	51 81       	ldd	r21, Z+1	; 0x01
    203a:	66 ec       	ldi	r22, 0xC6	; 198
    203c:	76 e0       	ldi	r23, 0x06	; 6
    203e:	8f 2d       	mov	r24, r15
    2040:	8b dc       	rcall	.-1770   	;  0x1958
    2042:	80 91 6f 01 	lds	r24, 0x016F	;  0x80016f
    2046:	8f 5f       	subi	r24, 0xFF	; 255
    2048:	80 93 6f 01 	sts	0x016F, r24	;  0x80016f
    204c:	1b c0       	rjmp	.+54     	;  0x2084
    204e:	25 eb       	ldi	r18, 0xB5	; 181
    2050:	36 e0       	ldi	r19, 0x06	; 6
    2052:	6f 2d       	mov	r22, r15
    2054:	8a e1       	ldi	r24, 0x1A	; 26
    2056:	40 df       	rcall	.-384    	;  0x1ed8
    2058:	88 23       	and	r24, r24
    205a:	a1 f0       	breq	.+40     	;  0x2084
    205c:	80 e0       	ldi	r24, 0x00	; 0
    205e:	f5 d9       	rcall	.-3094   	;  0x144a
    2060:	80 93 6a 01 	sts	0x016A, r24	;  0x80016a
    2064:	ee cf       	rjmp	.-36     	;  0x2042
    2066:	80 91 70 01 	lds	r24, 0x0170	;  0x800170
    206a:	ab db       	rcall	.-2218   	;  0x17c2
    206c:	67 dc       	rcall	.-1842   	;  0x193c
    206e:	82 e0       	ldi	r24, 0x02	; 2
    2070:	eb cf       	rjmp	.-42     	;  0x2048
    2072:	40 e0       	ldi	r20, 0x00	; 0
    2074:	61 e0       	ldi	r22, 0x01	; 1
    2076:	8f e1       	ldi	r24, 0x1F	; 31
    2078:	19 df       	rcall	.-462    	;  0x1eac
    207a:	18 16       	cp	r1, r24
    207c:	1c f4       	brge	.+6      	;  0x2084
    207e:	d8 d9       	rcall	.-3152   	;  0x1430
    2080:	80 93 71 01 	sts	0x0171, r24	;  0x800171
    2084:	80 91 e3 02 	lds	r24, 0x02E3	;  0x8002e3
    2088:	80 ff       	sbrs	r24, 0
    208a:	13 c0       	rjmp	.+38     	;  0x20b2
    208c:	80 91 70 01 	lds	r24, 0x0170	;  0x800170
    2090:	8f 5f       	subi	r24, 0xFF	; 255
    2092:	80 93 70 01 	sts	0x0170, r24	;  0x800170
    2096:	87 30       	cpi	r24, 0x07	; 7
    2098:	18 f0       	brcs	.+6      	;  0x20a0
    209a:	81 e0       	ldi	r24, 0x01	; 1
    209c:	80 93 70 01 	sts	0x0170, r24	;  0x800170
    20a0:	80 91 70 01 	lds	r24, 0x0170	;  0x800170
    20a4:	8e db       	rcall	.-2276   	;  0x17c2
    20a6:	4a dc       	rcall	.-1900   	;  0x193c
    20a8:	80 91 e3 02 	lds	r24, 0x02E3	;  0x8002e3
    20ac:	8e 7f       	andi	r24, 0xFE	; 254
    20ae:	80 93 e3 02 	sts	0x02E3, r24	;  0x8002e3
    20b2:	80 91 e3 02 	lds	r24, 0x02E3	;  0x8002e3
    20b6:	81 ff       	sbrs	r24, 1
    20b8:	60 c0       	rjmp	.+192    	;  0x217a
    20ba:	80 91 70 01 	lds	r24, 0x0170	;  0x800170
    20be:	83 30       	cpi	r24, 0x03	; 3
    20c0:	39 f1       	breq	.+78     	;  0x2110
    20c2:	40 f4       	brcc	.+16     	;  0x20d4
    20c4:	81 30       	cpi	r24, 0x01	; 1
    20c6:	a9 f0       	breq	.+42     	;  0x20f2
    20c8:	82 30       	cpi	r24, 0x02	; 2
    20ca:	09 f0       	breq	.+2      	;  0x20ce
    20cc:	51 c0       	rjmp	.+162    	;  0x2170
    20ce:	89 e8       	ldi	r24, 0x89	; 137
    20d0:	91 e0       	ldi	r25, 0x01	; 1
    20d2:	45 c0       	rjmp	.+138    	;  0x215e
    20d4:	85 30       	cpi	r24, 0x05	; 5
    20d6:	a9 f1       	breq	.+106    	;  0x2142
    20d8:	28 f1       	brcs	.+74     	;  0x2124
    20da:	86 30       	cpi	r24, 0x06	; 6
    20dc:	09 f0       	breq	.+2      	;  0x20e0
    20de:	48 c0       	rjmp	.+144    	;  0x2170
    20e0:	f8 01       	movw	r30, r16
    20e2:	62 81       	ldd	r22, Z+2	; 0x02
    20e4:	8b e9       	ldi	r24, 0x9B	; 155
    20e6:	91 e0       	ldi	r25, 0x01	; 1
    20e8:	0e 94 82 05 	call	0xb04	;  0xb04
    20ec:	8b e9       	ldi	r24, 0x9B	; 155
    20ee:	91 e0       	ldi	r25, 0x01	; 1
    20f0:	36 c0       	rjmp	.+108    	;  0x215e
    20f2:	60 91 71 01 	lds	r22, 0x0171	;  0x800171
    20f6:	8f e8       	ldi	r24, 0x8F	; 143
    20f8:	91 e0       	ldi	r25, 0x01	; 1
    20fa:	0e 94 85 05 	call	0xb0a	;  0xb0a
    20fe:	f8 01       	movw	r30, r16
    2100:	62 81       	ldd	r22, Z+2	; 0x02
    2102:	8f e8       	ldi	r24, 0x8F	; 143
    2104:	91 e0       	ldi	r25, 0x01	; 1
    2106:	0e 94 82 05 	call	0xb04	;  0xb04
    210a:	8f e8       	ldi	r24, 0x8F	; 143
    210c:	91 e0       	ldi	r25, 0x01	; 1
    210e:	27 c0       	rjmp	.+78     	;  0x215e
    2110:	8b e1       	ldi	r24, 0x1B	; 27
    2112:	80 93 6d 01 	sts	0x016D, r24	;  0x80016d
    2116:	81 e0       	ldi	r24, 0x01	; 1
    2118:	90 91 6c 01 	lds	r25, 0x016C	;  0x80016c
    211c:	99 23       	and	r25, r25
    211e:	e1 f0       	breq	.+56     	;  0x2158
    2120:	80 e0       	ldi	r24, 0x00	; 0
    2122:	1a c0       	rjmp	.+52     	;  0x2158
    2124:	89 e1       	ldi	r24, 0x19	; 25
    2126:	80 93 6d 01 	sts	0x016D, r24	;  0x80016d
    212a:	80 91 6b 01 	lds	r24, 0x016B	;  0x80016b
    212e:	8f 5f       	subi	r24, 0xFF	; 255
    2130:	80 93 6e 01 	sts	0x016E, r24	;  0x80016e
    2134:	83 30       	cpi	r24, 0x03	; 3
    2136:	10 f0       	brcs	.+4      	;  0x213c
    2138:	10 92 6e 01 	sts	0x016E, r1	;  0x80016e
    213c:	10 92 6f 01 	sts	0x016F, r1	;  0x80016f
    2140:	17 c0       	rjmp	.+46     	;  0x2170
    2142:	8a e1       	ldi	r24, 0x1A	; 26
    2144:	80 93 6d 01 	sts	0x016D, r24	;  0x80016d
    2148:	80 91 6a 01 	lds	r24, 0x016A	;  0x80016a
    214c:	86 5f       	subi	r24, 0xF6	; 246
    214e:	80 93 6e 01 	sts	0x016E, r24	;  0x80016e
    2152:	8d 33       	cpi	r24, 0x3D	; 61
    2154:	98 f3       	brcs	.-26     	;  0x213c
    2156:	8a e0       	ldi	r24, 0x0A	; 10
    2158:	80 93 6e 01 	sts	0x016E, r24	;  0x80016e
    215c:	ef cf       	rjmp	.-34     	;  0x213c
    215e:	90 93 82 01 	sts	0x0182, r25	;  0x800182
    2162:	80 93 81 01 	sts	0x0181, r24	;  0x800181
    2166:	80 91 e3 02 	lds	r24, 0x02E3	;  0x8002e3
    216a:	84 60       	ori	r24, 0x04	; 4
    216c:	80 93 e3 02 	sts	0x02E3, r24	;  0x8002e3
    2170:	80 91 e3 02 	lds	r24, 0x02E3	;  0x8002e3
    2174:	8d 7f       	andi	r24, 0xFD	; 253
    2176:	80 93 e3 02 	sts	0x02E3, r24	;  0x8002e3
    217a:	26 96       	adiw	r28, 0x06	; 6
    217c:	e5 e0       	ldi	r30, 0x05	; 5
    217e:	0c 94 1d 1c 	jmp	0x383a	;  0x383a
    2182:	0f 93       	push	r16
    2184:	1f 93       	push	r17
    2186:	cf 93       	push	r28
    2188:	df 93       	push	r29
    218a:	d6 2f       	mov	r29, r22
    218c:	89 01       	movw	r16, r18
    218e:	62 e0       	ldi	r22, 0x02	; 2
    2190:	8d de       	rcall	.-742    	;  0x1eac
    2192:	c8 2f       	mov	r28, r24
    2194:	88 23       	and	r24, r24
    2196:	69 f0       	breq	.+26     	;  0x21b2
    2198:	8f ef       	ldi	r24, 0xFF	; 255
    219a:	8d 0f       	add	r24, r29
    219c:	87 30       	cpi	r24, 0x07	; 7
    219e:	48 f4       	brcc	.+18     	;  0x21b2
    21a0:	80 e0       	ldi	r24, 0x00	; 0
    21a2:	65 d9       	rcall	.-3382   	;  0x146e
    21a4:	0e 94 9b 1a 	call	0x3536	;  0x3536
    21a8:	9b 01       	movw	r18, r22
    21aa:	ac 01       	movw	r20, r24
    21ac:	b8 01       	movw	r22, r16
    21ae:	8d 2f       	mov	r24, r29
    21b0:	4c dc       	rcall	.-1896   	;  0x1a4a
    21b2:	8c 2f       	mov	r24, r28
    21b4:	df 91       	pop	r29
    21b6:	cf 91       	pop	r28
    21b8:	1f 91       	pop	r17
    21ba:	0f 91       	pop	r16
    21bc:	08 95       	ret
    21be:	80 91 e3 02 	lds	r24, 0x02E3	;  0x8002e3
    21c2:	82 ff       	sbrs	r24, 2
    21c4:	0e c0       	rjmp	.+28     	;  0x21e2
    21c6:	04 db       	rcall	.-2552   	;  0x17d0
    21c8:	80 91 10 01 	lds	r24, 0x0110	;  0x800110
    21cc:	fa da       	rcall	.-2572   	;  0x17c2
    21ce:	b6 db       	rcall	.-2196   	;  0x193c
    21d0:	8f eb       	ldi	r24, 0xBF	; 191
    21d2:	91 e0       	ldi	r25, 0x01	; 1
    21d4:	0e 94 bf 04 	call	0x97e	;  0x97e
    21d8:	80 91 e3 02 	lds	r24, 0x02E3	;  0x8002e3
    21dc:	8b 7f       	andi	r24, 0xFB	; 251
    21de:	80 93 e3 02 	sts	0x02E3, r24	;  0x8002e3
    21e2:	0e 94 85 04 	call	0x90a	;  0x90a
    21e6:	88 23       	and	r24, r24
    21e8:	89 f0       	breq	.+34     	;  0x220c
    21ea:	91 e0       	ldi	r25, 0x01	; 1
    21ec:	20 91 c1 01 	lds	r18, 0x01C1	;  0x8001c1
    21f0:	30 91 c2 01 	lds	r19, 0x01C2	;  0x8001c2
    21f4:	28 3f       	cpi	r18, 0xF8	; 248
    21f6:	31 05       	cpc	r19, r1
    21f8:	08 f4       	brcc	.+2      	;  0x21fc
    21fa:	90 e0       	ldi	r25, 0x00	; 0
    21fc:	80 91 e2 02 	lds	r24, 0x02E2	;  0x8002e2
    2200:	90 fb       	bst	r25, 0
    2202:	80 f9       	bld	r24, 0
    2204:	80 93 e2 02 	sts	0x02E2, r24	;  0x8002e2
    2208:	80 e0       	ldi	r24, 0x00	; 0
    220a:	0f db       	rcall	.-2530   	;  0x182a
    220c:	80 91 e3 02 	lds	r24, 0x02E3	;  0x8002e3
    2210:	80 ff       	sbrs	r24, 0
    2212:	17 c0       	rjmp	.+46     	;  0x2242
    2214:	80 91 10 01 	lds	r24, 0x0110	;  0x800110
    2218:	8f 5f       	subi	r24, 0xFF	; 255
    221a:	80 93 10 01 	sts	0x0110, r24	;  0x800110
    221e:	88 30       	cpi	r24, 0x08	; 8
    2220:	10 f0       	brcs	.+4      	;  0x2226
    2222:	81 e0       	ldi	r24, 0x01	; 1
    2224:	03 c0       	rjmp	.+6      	;  0x222c
    2226:	85 30       	cpi	r24, 0x05	; 5
    2228:	18 f0       	brcs	.+6      	;  0x2230
    222a:	87 e0       	ldi	r24, 0x07	; 7
    222c:	80 93 10 01 	sts	0x0110, r24	;  0x800110
    2230:	80 91 10 01 	lds	r24, 0x0110	;  0x800110
    2234:	c6 da       	rcall	.-2676   	;  0x17c2
    2236:	82 db       	rcall	.-2300   	;  0x193c
    2238:	80 91 e3 02 	lds	r24, 0x02E3	;  0x8002e3
    223c:	8e 7f       	andi	r24, 0xFE	; 254
    223e:	80 93 e3 02 	sts	0x02E3, r24	;  0x8002e3
    2242:	80 91 e3 02 	lds	r24, 0x02E3	;  0x8002e3
    2246:	81 ff       	sbrs	r24, 1
    2248:	2d c0       	rjmp	.+90     	;  0x22a4
    224a:	80 91 10 01 	lds	r24, 0x0110	;  0x800110
    224e:	83 30       	cpi	r24, 0x03	; 3
    2250:	a9 f0       	breq	.+42     	;  0x227c
    2252:	38 f4       	brcc	.+14     	;  0x2262
    2254:	81 30       	cpi	r24, 0x01	; 1
    2256:	79 f0       	breq	.+30     	;  0x2276
    2258:	82 30       	cpi	r24, 0x02	; 2
    225a:	f9 f4       	brne	.+62     	;  0x229a
    225c:	83 eb       	ldi	r24, 0xB3	; 179
    225e:	91 e0       	ldi	r25, 0x01	; 1
    2260:	0f c0       	rjmp	.+30     	;  0x2280
    2262:	84 30       	cpi	r24, 0x04	; 4
    2264:	b9 f0       	breq	.+46     	;  0x2294
    2266:	87 30       	cpi	r24, 0x07	; 7
    2268:	c1 f4       	brne	.+48     	;  0x229a
    226a:	0e 94 f9 04 	call	0x9f2	;  0x9f2
    226e:	0e 94 e7 07 	call	0xfce	;  0xfce
    2272:	43 d9       	rcall	.-3450   	;  0x14fa
    2274:	12 c0       	rjmp	.+36     	;  0x229a
    2276:	8d ea       	ldi	r24, 0xAD	; 173
    2278:	91 e0       	ldi	r25, 0x01	; 1
    227a:	02 c0       	rjmp	.+4      	;  0x2280
    227c:	87 ea       	ldi	r24, 0xA7	; 167
    227e:	91 e0       	ldi	r25, 0x01	; 1
    2280:	90 93 82 01 	sts	0x0182, r25	;  0x800182
    2284:	80 93 81 01 	sts	0x0181, r24	;  0x800181
    2288:	80 91 e3 02 	lds	r24, 0x02E3	;  0x8002e3
    228c:	84 60       	ori	r24, 0x04	; 4
    228e:	80 93 e3 02 	sts	0x02E3, r24	;  0x8002e3
    2292:	03 c0       	rjmp	.+6      	;  0x229a
    2294:	81 ea       	ldi	r24, 0xA1	; 161
    2296:	91 e0       	ldi	r25, 0x01	; 1
    2298:	f3 cf       	rjmp	.-26     	;  0x2280
    229a:	80 91 e3 02 	lds	r24, 0x02E3	;  0x8002e3
    229e:	8d 7f       	andi	r24, 0xFD	; 253
    22a0:	80 93 e3 02 	sts	0x02E3, r24	;  0x8002e3
    22a4:	08 95       	ret
    22a6:	bc 01       	movw	r22, r24
    22a8:	85 e0       	ldi	r24, 0x05	; 5
    22aa:	7b db       	rcall	.-2314   	;  0x19a2
    22ac:	85 e0       	ldi	r24, 0x05	; 5
    22ae:	bd ca       	rjmp	.-2694   	;  0x182a
    22b0:	08 95       	ret
    22b2:	ab e0       	ldi	r26, 0x0B	; 11
    22b4:	b0 e0       	ldi	r27, 0x00	; 0
    22b6:	ef e5       	ldi	r30, 0x5F	; 95
    22b8:	f1 e1       	ldi	r31, 0x11	; 17
    22ba:	0c 94 fc 1b 	jmp	0x37f8	;  0x37f8
    22be:	18 2f       	mov	r17, r24
    22c0:	6b 01       	movw	r12, r22
    22c2:	ba 01       	movw	r22, r20
    22c4:	80 e0       	ldi	r24, 0x00	; 0
    22c6:	90 e0       	ldi	r25, 0x00	; 0
    22c8:	2a e0       	ldi	r18, 0x0A	; 10
    22ca:	ae 01       	movw	r20, r28
    22cc:	4f 5f       	subi	r20, 0xFF	; 255
    22ce:	5f 4f       	sbci	r21, 0xFF	; 255
    22d0:	7a 01       	movw	r14, r20
    22d2:	0e 94 92 1c 	call	0x3924	;  0x3924
    22d6:	81 2f       	mov	r24, r17
    22d8:	61 da       	rcall	.-2878   	;  0x179c
    22da:	56 e1       	ldi	r21, 0x16	; 22
    22dc:	15 9f       	mul	r17, r21
    22de:	c0 01       	movw	r24, r0
    22e0:	11 24       	eor	r1, r1
    22e2:	b6 01       	movw	r22, r12
    22e4:	8d 52       	subi	r24, 0x2D	; 45
    22e6:	9e 4f       	sbci	r25, 0xFE	; 254
    22e8:	0e 94 5a 1c 	call	0x38b4	;  0x38b4
    22ec:	5c 01       	movw	r10, r24
    22ee:	f7 01       	movw	r30, r14
    22f0:	01 90       	ld	r0, Z+
    22f2:	00 20       	and	r0, r0
    22f4:	e9 f7       	brne	.-6      	;  0x22f0
    22f6:	31 97       	sbiw	r30, 0x01	; 1
    22f8:	8f 01       	movw	r16, r30
    22fa:	0e 19       	sub	r16, r14
    22fc:	1f 09       	sbc	r17, r15
    22fe:	c6 01       	movw	r24, r12
    2300:	0e 94 61 1c 	call	0x38c2	;  0x38c2
    2304:	a8 01       	movw	r20, r16
    2306:	b7 01       	movw	r22, r14
    2308:	8a 0d       	add	r24, r10
    230a:	9b 1d       	adc	r25, r11
    230c:	0e 94 6a 1c 	call	0x38d4	;  0x38d4
    2310:	2b 96       	adiw	r28, 0x0b	; 11
    2312:	ea e0       	ldi	r30, 0x0A	; 10
    2314:	0c 94 18 1c 	jmp	0x3830	;  0x3830
    2318:	a4 e0       	ldi	r26, 0x04	; 4
    231a:	b0 e0       	ldi	r27, 0x00	; 0
    231c:	e2 e9       	ldi	r30, 0x92	; 146
    231e:	f1 e1       	ldi	r31, 0x11	; 17
    2320:	0c 94 02 1c 	jmp	0x3804	;  0x3804
    2324:	8a 30       	cpi	r24, 0x0A	; 10
    2326:	20 f4       	brcc	.+8      	;  0x2330
    2328:	90 e3       	ldi	r25, 0x30	; 48
    232a:	99 83       	std	Y+1, r25	; 0x01
    232c:	91 e0       	ldi	r25, 0x01	; 1
    232e:	01 c0       	rjmp	.+2      	;  0x2332
    2330:	90 e0       	ldi	r25, 0x00	; 0
    2332:	8e 01       	movw	r16, r28
    2334:	0f 5f       	subi	r16, 0xFF	; 255
    2336:	1f 4f       	sbci	r17, 0xFF	; 255
    2338:	b8 01       	movw	r22, r16
    233a:	69 0f       	add	r22, r25
    233c:	71 1d       	adc	r23, r1
    233e:	4a e0       	ldi	r20, 0x0A	; 10
    2340:	90 e0       	ldi	r25, 0x00	; 0
    2342:	0e 94 73 1c 	call	0x38e6	;  0x38e6
    2346:	f8 01       	movw	r30, r16
    2348:	01 90       	ld	r0, Z+
    234a:	00 20       	and	r0, r0
    234c:	e9 f7       	brne	.-6      	;  0x2348
    234e:	31 97       	sbiw	r30, 0x01	; 1
    2350:	af 01       	movw	r20, r30
    2352:	40 1b       	sub	r20, r16
    2354:	51 0b       	sbc	r21, r17
    2356:	b8 01       	movw	r22, r16
    2358:	83 e1       	ldi	r24, 0x13	; 19
    235a:	92 e0       	ldi	r25, 0x02	; 2
    235c:	0e 94 6a 1c 	call	0x38d4	;  0x38d4
    2360:	24 96       	adiw	r28, 0x04	; 4
    2362:	e4 e0       	ldi	r30, 0x04	; 4
    2364:	0c 94 1e 1c 	jmp	0x383c	;  0x383c
    2368:	cf 93       	push	r28
    236a:	df 93       	push	r29
    236c:	ec 01       	movw	r28, r24
    236e:	80 91 e3 02 	lds	r24, 0x02E3	;  0x8002e3
    2372:	82 ff       	sbrs	r24, 2
    2374:	15 c0       	rjmp	.+42     	;  0x23a0
    2376:	8b 81       	ldd	r24, Y+3	; 0x03
    2378:	80 93 73 01 	sts	0x0173, r24	;  0x800173
    237c:	10 92 72 01 	sts	0x0172, r1	;  0x800172
    2380:	27 da       	rcall	.-2994   	;  0x17d0
    2382:	80 91 73 01 	lds	r24, 0x0173	;  0x800173
    2386:	c8 df       	rcall	.-112    	;  0x2318
    2388:	83 ec       	ldi	r24, 0xC3	; 195
    238a:	80 93 c5 01 	sts	0x01C5, r24	;  0x8001c5
    238e:	80 e3       	ldi	r24, 0x30	; 48
    2390:	80 93 c6 01 	sts	0x01C6, r24	;  0x8001c6
    2394:	d3 da       	rcall	.-2650   	;  0x193c
    2396:	80 91 e3 02 	lds	r24, 0x02E3	;  0x8002e3
    239a:	8b 7f       	andi	r24, 0xFB	; 251
    239c:	80 93 e3 02 	sts	0x02E3, r24	;  0x8002e3
    23a0:	80 91 e3 02 	lds	r24, 0x02E3	;  0x8002e3
    23a4:	80 ff       	sbrs	r24, 0
    23a6:	2d c0       	rjmp	.+90     	;  0x2402
    23a8:	80 91 72 01 	lds	r24, 0x0172	;  0x800172
    23ac:	8f 5f       	subi	r24, 0xFF	; 255
    23ae:	80 93 72 01 	sts	0x0172, r24	;  0x800172
    23b2:	84 30       	cpi	r24, 0x04	; 4
    23b4:	10 f0       	brcs	.+4      	;  0x23ba
    23b6:	10 92 72 01 	sts	0x0172, r1	;  0x800172
    23ba:	80 91 72 01 	lds	r24, 0x0172	;  0x800172
    23be:	81 30       	cpi	r24, 0x01	; 1
    23c0:	79 f0       	breq	.+30     	;  0x23e0
    23c2:	48 f0       	brcs	.+18     	;  0x23d6
    23c4:	82 30       	cpi	r24, 0x02	; 2
    23c6:	89 f0       	breq	.+34     	;  0x23ea
    23c8:	83 30       	cpi	r24, 0x03	; 3
    23ca:	a9 f4       	brne	.+42     	;  0x23f6
    23cc:	87 e4       	ldi	r24, 0x47	; 71
    23ce:	80 93 c5 01 	sts	0x01C5, r24	;  0x8001c5
    23d2:	8c ea       	ldi	r24, 0xAC	; 172
    23d4:	0e c0       	rjmp	.+28     	;  0x23f2
    23d6:	83 ec       	ldi	r24, 0xC3	; 195
    23d8:	80 93 c5 01 	sts	0x01C5, r24	;  0x8001c5
    23dc:	80 e3       	ldi	r24, 0x30	; 48
    23de:	09 c0       	rjmp	.+18     	;  0x23f2
    23e0:	83 e0       	ldi	r24, 0x03	; 3
    23e2:	80 93 c5 01 	sts	0x01C5, r24	;  0x8001c5
    23e6:	8c e9       	ldi	r24, 0x9C	; 156
    23e8:	04 c0       	rjmp	.+8      	;  0x23f2
    23ea:	87 e4       	ldi	r24, 0x47	; 71
    23ec:	80 93 c5 01 	sts	0x01C5, r24	;  0x8001c5
    23f0:	88 e4       	ldi	r24, 0x48	; 72
    23f2:	80 93 c6 01 	sts	0x01C6, r24	;  0x8001c6
    23f6:	a2 da       	rcall	.-2748   	;  0x193c
    23f8:	80 91 e3 02 	lds	r24, 0x02E3	;  0x8002e3
    23fc:	8e 7f       	andi	r24, 0xFE	; 254
    23fe:	80 93 e3 02 	sts	0x02E3, r24	;  0x8002e3
    2402:	80 91 e3 02 	lds	r24, 0x02E3	;  0x8002e3
    2406:	81 ff       	sbrs	r24, 1
    2408:	0a c0       	rjmp	.+20     	;  0x241e
    240a:	80 91 72 01 	lds	r24, 0x0172	;  0x800172
    240e:	81 30       	cpi	r24, 0x01	; 1
    2410:	c1 f0       	breq	.+48     	;  0x2442
    2412:	58 f0       	brcs	.+22     	;  0x242a
    2414:	82 30       	cpi	r24, 0x02	; 2
    2416:	71 f1       	breq	.+92     	;  0x2474
    2418:	83 30       	cpi	r24, 0x03	; 3
    241a:	19 f1       	breq	.+70     	;  0x2462
    241c:	36 c0       	rjmp	.+108    	;  0x248a
    241e:	88 e0       	ldi	r24, 0x08	; 8
    2420:	0e 94 63 05 	call	0xac6	;  0xac6
    2424:	81 11       	cpse	r24, r1
    2426:	f1 cf       	rjmp	.-30     	;  0x240a
    2428:	35 c0       	rjmp	.+106    	;  0x2494
    242a:	80 91 73 01 	lds	r24, 0x0173	;  0x800173
    242e:	82 30       	cpi	r24, 0x02	; 2
    2430:	60 f1       	brcs	.+88     	;  0x248a
    2432:	81 50       	subi	r24, 0x01	; 1
    2434:	80 93 73 01 	sts	0x0173, r24	;  0x800173
    2438:	93 ec       	ldi	r25, 0xC3	; 195
    243a:	90 93 c5 01 	sts	0x01C5, r25	;  0x8001c5
    243e:	90 e3       	ldi	r25, 0x30	; 48
    2440:	0b c0       	rjmp	.+22     	;  0x2458
    2442:	80 91 73 01 	lds	r24, 0x0173	;  0x800173
    2446:	83 36       	cpi	r24, 0x63	; 99
    2448:	00 f5       	brcc	.+64     	;  0x248a
    244a:	8f 5f       	subi	r24, 0xFF	; 255
    244c:	80 93 73 01 	sts	0x0173, r24	;  0x800173
    2450:	93 e0       	ldi	r25, 0x03	; 3
    2452:	90 93 c5 01 	sts	0x01C5, r25	;  0x8001c5
    2456:	9c e9       	ldi	r25, 0x9C	; 156
    2458:	90 93 c6 01 	sts	0x01C6, r25	;  0x8001c6
    245c:	5d df       	rcall	.-326    	;  0x2318
    245e:	6e da       	rcall	.-2852   	;  0x193c
    2460:	14 c0       	rjmp	.+40     	;  0x248a
    2462:	60 91 73 01 	lds	r22, 0x0173	;  0x800173
    2466:	70 e0       	ldi	r23, 0x00	; 0
    2468:	4b 81       	ldd	r20, Y+3	; 0x03
    246a:	8f e1       	ldi	r24, 0x1F	; 31
    246c:	90 e0       	ldi	r25, 0x00	; 0
    246e:	1e db       	rcall	.-2500   	;  0x1aac
    2470:	18 16       	cp	r1, r24
    2472:	5c f4       	brge	.+22     	;  0x248a
    2474:	85 e9       	ldi	r24, 0x95	; 149
    2476:	91 e0       	ldi	r25, 0x01	; 1
    2478:	90 93 82 01 	sts	0x0182, r25	;  0x800182
    247c:	80 93 81 01 	sts	0x0181, r24	;  0x800181
    2480:	80 91 e3 02 	lds	r24, 0x02E3	;  0x8002e3
    2484:	84 60       	ori	r24, 0x04	; 4
    2486:	80 93 e3 02 	sts	0x02E3, r24	;  0x8002e3
    248a:	80 91 e3 02 	lds	r24, 0x02E3	;  0x8002e3
    248e:	8d 7f       	andi	r24, 0xFD	; 253
    2490:	80 93 e3 02 	sts	0x02E3, r24	;  0x8002e3
    2494:	df 91       	pop	r29
    2496:	cf 91       	pop	r28
    2498:	08 95       	ret
    249a:	a8 95       	wdr
    249c:	43 d8       	rcall	.-3962   	;  0x1524
    249e:	81 11       	cpse	r24, r1
    24a0:	05 c0       	rjmp	.+10     	;  0x24ac
    24a2:	80 91 0f 01 	lds	r24, 0x010F	;  0x80010f
    24a6:	88 23       	and	r24, r24
    24a8:	09 f4       	brne	.+2      	;  0x24ac
    24aa:	ad c0       	rjmp	.+346    	;  0x2606
    24ac:	f8 94       	cli
    24ae:	80 91 0f 01 	lds	r24, 0x010F	;  0x80010f
    24b2:	88 23       	and	r24, r24
    24b4:	49 f0       	breq	.+18     	;  0x24c8
    24b6:	1a b8       	out	0x0a, r1	; 10
    24b8:	17 b8       	out	0x07, r1	; 7
    24ba:	14 b8       	out	0x04, r1	; 4
    24bc:	1b b8       	out	0x0b, r1	; 11
    24be:	18 b8       	out	0x08, r1	; 8
    24c0:	15 b8       	out	0x05, r1	; 5
    24c2:	10 92 0f 01 	sts	0x010F, r1	;  0x80010f
    24c6:	04 c0       	rjmp	.+8      	;  0x24d0
    24c8:	0e 94 95 06 	call	0xd2a	;  0xd2a
    24cc:	0e 94 5c 06 	call	0xcb8	;  0xcb8
    24d0:	80 b7       	in	r24, 0x30	; 48
    24d2:	80 68       	ori	r24, 0x80	; 128
    24d4:	80 bf       	out	0x30, r24	; 48
    24d6:	0e 94 f9 04 	call	0x9f2	;  0x9f2
    24da:	50 d9       	rcall	.-3424   	;  0x177c
    24dc:	5c d9       	rcall	.-3400   	;  0x1796
    24de:	55 d9       	rcall	.-3414   	;  0x178a
    24e0:	29 98       	cbi	0x05, 1	; 5
    24e2:	80 91 69 00 	lds	r24, 0x0069	;  0x800069
    24e6:	88 60       	ori	r24, 0x08	; 8
    24e8:	80 93 69 00 	sts	0x0069, r24	;  0x800069
    24ec:	e9 9a       	sbi	0x1d, 1	; 29
    24ee:	e1 9a       	sbi	0x1c, 1	; 28
    24f0:	80 91 64 00 	lds	r24, 0x0064	;  0x800064
    24f4:	8f 62       	ori	r24, 0x2F	; 47
    24f6:	80 93 64 00 	sts	0x0064, r24	;  0x800064
    24fa:	14 be       	out	0x34, r1	; 52
    24fc:	0f b6       	in	r0, 0x3f	; 63
    24fe:	f8 94       	cli
    2500:	a8 95       	wdr
    2502:	80 91 60 00 	lds	r24, 0x0060	;  0x800060
    2506:	88 61       	ori	r24, 0x18	; 24
    2508:	80 93 60 00 	sts	0x0060, r24	;  0x800060
    250c:	10 92 60 00 	sts	0x0060, r1	;  0x800060
    2510:	0f be       	out	0x3f, r0	; 63
    2512:	83 b7       	in	r24, 0x33	; 51
    2514:	81 7f       	andi	r24, 0xF1	; 241
    2516:	84 60       	ori	r24, 0x04	; 4
    2518:	83 bf       	out	0x33, r24	; 51
    251a:	83 b7       	in	r24, 0x33	; 51
    251c:	81 60       	ori	r24, 0x01	; 1
    251e:	83 bf       	out	0x33, r24	; 51
    2520:	78 94       	sei
    2522:	88 95       	sleep
    2524:	e9 98       	cbi	0x1d, 1	; 29
    2526:	80 91 64 00 	lds	r24, 0x0064	;  0x800064
    252a:	84 7d       	andi	r24, 0xD4	; 212
    252c:	80 93 64 00 	sts	0x0064, r24	;  0x800064
    2530:	98 e2       	ldi	r25, 0x28	; 40
    2532:	88 e1       	ldi	r24, 0x18	; 24
    2534:	0f b6       	in	r0, 0x3f	; 63
    2536:	f8 94       	cli
    2538:	a8 95       	wdr
    253a:	80 93 60 00 	sts	0x0060, r24	;  0x800060
    253e:	0f be       	out	0x3f, r0	; 63
    2540:	90 93 60 00 	sts	0x0060, r25	;  0x800060
    2544:	1a b8       	out	0x0a, r1	; 10
    2546:	17 b8       	out	0x07, r1	; 7
    2548:	14 b8       	out	0x04, r1	; 4
    254a:	1b b8       	out	0x0b, r1	; 11
    254c:	18 b8       	out	0x08, r1	; 8
    254e:	15 b8       	out	0x05, r1	; 5
    2550:	56 9a       	sbi	0x0a, 6	; 10
    2552:	21 9a       	sbi	0x04, 1	; 4
    2554:	38 9a       	sbi	0x07, 0	; 7
    2556:	52 9a       	sbi	0x0a, 2	; 10
    2558:	54 9a       	sbi	0x0a, 4	; 10
    255a:	3a 9a       	sbi	0x07, 2	; 7
    255c:	3b 9a       	sbi	0x07, 3	; 7
    255e:	0e 94 69 05 	call	0xad2	;  0xad2
    2562:	0e 94 53 06 	call	0xca6	;  0xca6
    2566:	0e 94 fe 07 	call	0xffc	;  0xffc
    256a:	8f eb       	ldi	r24, 0xBF	; 191
    256c:	91 e0       	ldi	r25, 0x01	; 1
    256e:	0e 94 bf 04 	call	0x97e	;  0x97e
    2572:	2f ef       	ldi	r18, 0xFF	; 255
    2574:	8f e7       	ldi	r24, 0x7F	; 127
    2576:	9d e0       	ldi	r25, 0x0D	; 13
    2578:	21 50       	subi	r18, 0x01	; 1
    257a:	80 40       	sbci	r24, 0x00	; 0
    257c:	90 40       	sbci	r25, 0x00	; 0
    257e:	e1 f7       	brne	.-8      	;  0x2578
    2580:	00 c0       	rjmp	.+0      	;  0x2582
    2582:	00 00       	nop
    2584:	88 e0       	ldi	r24, 0x08	; 8
    2586:	0e 94 59 05 	call	0xab2	;  0xab2
    258a:	88 e0       	ldi	r24, 0x08	; 8
    258c:	0e 94 60 05 	call	0xac0	;  0xac0
    2590:	81 e0       	ldi	r24, 0x01	; 1
    2592:	0e 94 ef 04 	call	0x9de	;  0x9de
    2596:	21 e0       	ldi	r18, 0x01	; 1
    2598:	89 3f       	cpi	r24, 0xF9	; 249
    259a:	91 05       	cpc	r25, r1
    259c:	08 f4       	brcc	.+2      	;  0x25a0
    259e:	20 e0       	ldi	r18, 0x00	; 0
    25a0:	80 91 e2 02 	lds	r24, 0x02E2	;  0x8002e2
    25a4:	20 fb       	bst	r18, 0
    25a6:	80 f9       	bld	r24, 0
    25a8:	80 93 e2 02 	sts	0x02E2, r24	;  0x8002e2
    25ac:	83 b7       	in	r24, 0x33	; 51
    25ae:	8e 7f       	andi	r24, 0xFE	; 254
    25b0:	83 bf       	out	0x33, r24	; 51
    25b2:	0e 94 87 0a 	call	0x150e	;  0x150e
    25b6:	e0 91 81 01 	lds	r30, 0x0181	;  0x800181
    25ba:	f0 91 82 01 	lds	r31, 0x0182	;  0x800182
    25be:	82 81       	ldd	r24, Z+2	; 0x02
    25c0:	83 30       	cpi	r24, 0x03	; 3
    25c2:	71 f0       	breq	.+28     	;  0x25e0
    25c4:	18 f4       	brcc	.+6      	;  0x25cc
    25c6:	81 30       	cpi	r24, 0x01	; 1
    25c8:	98 f0       	brcs	.+38     	;  0x25f0
    25ca:	18 c0       	rjmp	.+48     	;  0x25fc
    25cc:	84 30       	cpi	r24, 0x04	; 4
    25ce:	81 f4       	brne	.+32     	;  0x25f0
    25d0:	64 e0       	ldi	r22, 0x04	; 4
    25d2:	81 ea       	ldi	r24, 0xA1	; 161
    25d4:	91 e0       	ldi	r25, 0x01	; 1
    25d6:	0e 94 82 05 	call	0xb04	;  0xb04
    25da:	81 ea       	ldi	r24, 0xA1	; 161
    25dc:	91 e0       	ldi	r25, 0x01	; 1
    25de:	0a c0       	rjmp	.+20     	;  0x25f4
    25e0:	63 e0       	ldi	r22, 0x03	; 3
    25e2:	87 ea       	ldi	r24, 0xA7	; 167
    25e4:	91 e0       	ldi	r25, 0x01	; 1
    25e6:	0e 94 82 05 	call	0xb04	;  0xb04
    25ea:	87 ea       	ldi	r24, 0xA7	; 167
    25ec:	91 e0       	ldi	r25, 0x01	; 1
    25ee:	02 c0       	rjmp	.+4      	;  0x25f4
    25f0:	89 eb       	ldi	r24, 0xB9	; 185
    25f2:	91 e0       	ldi	r25, 0x01	; 1
    25f4:	90 93 82 01 	sts	0x0182, r25	;  0x800182
    25f8:	80 93 81 01 	sts	0x0181, r24	;  0x800181
    25fc:	80 91 e3 02 	lds	r24, 0x02E3	;  0x8002e3
    2600:	84 60       	ori	r24, 0x04	; 4
    2602:	80 93 e3 02 	sts	0x02E3, r24	;  0x8002e3
    2606:	08 95       	ret
    2608:	8f 92       	push	r8
    260a:	9f 92       	push	r9
    260c:	af 92       	push	r10
    260e:	bf 92       	push	r11
    2610:	ef 92       	push	r14
    2612:	ff 92       	push	r15
    2614:	1f 93       	push	r17
    2616:	cf 93       	push	r28
    2618:	df 93       	push	r29
    261a:	ec 01       	movw	r28, r24
    261c:	80 91 e3 02 	lds	r24, 0x02E3	;  0x8002e3
    2620:	82 ff       	sbrs	r24, 2
    2622:	52 c0       	rjmp	.+164    	;  0x26c8
    2624:	1a 81       	ldd	r17, Y+2	; 0x02
    2626:	10 92 d6 02 	sts	0x02D6, r1	;  0x8002d6
    262a:	10 92 d7 02 	sts	0x02D7, r1	;  0x8002d7
    262e:	10 92 d8 02 	sts	0x02D8, r1	;  0x8002d8
    2632:	10 92 d9 02 	sts	0x02D9, r1	;  0x8002d9
    2636:	10 92 d2 02 	sts	0x02D2, r1	;  0x8002d2
    263a:	10 92 d3 02 	sts	0x02D3, r1	;  0x8002d3
    263e:	10 92 d4 02 	sts	0x02D4, r1	;  0x8002d4
    2642:	10 92 d5 02 	sts	0x02D5, r1	;  0x8002d5
    2646:	10 92 df 02 	sts	0x02DF, r1	;  0x8002df
    264a:	10 92 de 02 	sts	0x02DE, r1	;  0x8002de
    264e:	10 92 e1 02 	sts	0x02E1, r1	;  0x8002e1
    2652:	10 92 e0 02 	sts	0x02E0, r1	;  0x8002e0
    2656:	80 91 e2 02 	lds	r24, 0x02E2	;  0x8002e2
    265a:	80 ff       	sbrs	r24, 0
    265c:	29 9a       	sbi	0x05, 1	; 5
    265e:	e0 91 11 01 	lds	r30, 0x0111	;  0x800111
    2662:	84 e0       	ldi	r24, 0x04	; 4
    2664:	e8 9f       	mul	r30, r24
    2666:	f0 01       	movw	r30, r0
    2668:	11 24       	eor	r1, r1
    266a:	e8 5e       	subi	r30, 0xE8	; 232
    266c:	fe 4f       	sbci	r31, 0xFE	; 254
    266e:	60 81       	ld	r22, Z
    2670:	71 81       	ldd	r23, Z+1	; 0x01
    2672:	82 81       	ldd	r24, Z+2	; 0x02
    2674:	93 81       	ldd	r25, Z+3	; 0x03
    2676:	59 d8       	rcall	.-3918   	;  0x172a
    2678:	ab d8       	rcall	.-3754   	;  0x17d0
    267a:	14 30       	cpi	r17, 0x04	; 4
    267c:	39 f4       	brne	.+14     	;  0x268c
    267e:	6e e9       	ldi	r22, 0x9E	; 158
    2680:	76 e0       	ldi	r23, 0x06	; 6
    2682:	80 e0       	ldi	r24, 0x00	; 0
    2684:	8e d9       	rcall	.-3300   	;  0x19a2
    2686:	87 d8       	rcall	.-3826   	;  0x1796
    2688:	81 e0       	ldi	r24, 0x01	; 1
    268a:	05 c0       	rjmp	.+10     	;  0x2696
    268c:	13 30       	cpi	r17, 0x03	; 3
    268e:	11 f4       	brne	.+4      	;  0x2694
    2690:	7c d8       	rcall	.-3848   	;  0x178a
    2692:	7e d8       	rcall	.-3844   	;  0x1790
    2694:	80 e0       	ldi	r24, 0x00	; 0
    2696:	0e 94 e8 09 	call	0x13d0	;  0x13d0
    269a:	82 e3       	ldi	r24, 0x32	; 50
    269c:	90 e0       	ldi	r25, 0x00	; 0
    269e:	0e 94 a0 0a 	call	0x1540	;  0x1540
    26a2:	0e 94 96 0a 	call	0x152c	;  0x152c
    26a6:	10 92 69 01 	sts	0x0169, r1	;  0x800169
    26aa:	10 92 68 01 	sts	0x0168, r1	;  0x800168
    26ae:	81 e0       	ldi	r24, 0x01	; 1
    26b0:	80 93 67 01 	sts	0x0167, r24	;  0x800167
    26b4:	86 e0       	ldi	r24, 0x06	; 6
    26b6:	80 93 66 01 	sts	0x0166, r24	;  0x800166
    26ba:	83 d8       	rcall	.-3834   	;  0x17c2
    26bc:	3f d9       	rcall	.-3458   	;  0x193c
    26be:	80 91 e3 02 	lds	r24, 0x02E3	;  0x8002e3
    26c2:	8b 7f       	andi	r24, 0xFB	; 251
    26c4:	80 93 e3 02 	sts	0x02E3, r24	;  0x8002e3
    26c8:	40 91 69 01 	lds	r20, 0x0169	;  0x800169
    26cc:	44 23       	and	r20, r20
    26ce:	09 f4       	brne	.+2      	;  0x26d2
    26d0:	d2 c0       	rjmp	.+420    	;  0x2876
    26d2:	e0 91 67 01 	lds	r30, 0x0167	;  0x800167
    26d6:	20 91 68 01 	lds	r18, 0x0168	;  0x800168
    26da:	1e 2f       	mov	r17, r30
    26dc:	12 1b       	sub	r17, r18
    26de:	8e 2f       	mov	r24, r30
    26e0:	90 e0       	ldi	r25, 0x00	; 0
    26e2:	fc 01       	movw	r30, r24
    26e4:	31 97       	sbiw	r30, 0x01	; 1
    26e6:	e9 30       	cpi	r30, 0x09	; 9
    26e8:	f1 05       	cpc	r31, r1
    26ea:	08 f0       	brcs	.+2      	;  0x26ee
    26ec:	bc c0       	rjmp	.+376    	;  0x2866
    26ee:	e5 5c       	subi	r30, 0xC5	; 197
    26f0:	ff 4f       	sbci	r31, 0xFF	; 255
    26f2:	0c 94 ee 1b 	jmp	0x37dc	;  0x37dc
    26f6:	28 e9       	ldi	r18, 0x98	; 152
    26f8:	37 e0       	ldi	r19, 0x07	; 7
    26fa:	61 2f       	mov	r22, r17
    26fc:	82 e0       	ldi	r24, 0x02	; 2
    26fe:	41 dd       	rcall	.-1406   	;  0x2182
    2700:	88 23       	and	r24, r24
    2702:	09 f4       	brne	.+2      	;  0x2706
    2704:	1b c2       	rjmp	.+1078   	;  0x2b3c
    2706:	80 e0       	ldi	r24, 0x00	; 0
    2708:	0e 94 37 0a 	call	0x146e	;  0x146e
    270c:	60 93 62 01 	sts	0x0162, r22	;  0x800162
    2710:	70 93 63 01 	sts	0x0163, r23	;  0x800163
    2714:	80 93 64 01 	sts	0x0164, r24	;  0x800164
    2718:	90 93 65 01 	sts	0x0165, r25	;  0x800165
    271c:	9c c0       	rjmp	.+312    	;  0x2856
    271e:	61 e0       	ldi	r22, 0x01	; 1
    2720:	8d e1       	ldi	r24, 0x1D	; 29
    2722:	c4 db       	rcall	.-2168   	;  0x1eac
    2724:	88 23       	and	r24, r24
    2726:	09 f4       	brne	.+2      	;  0x272a
    2728:	09 c2       	rjmp	.+1042   	;  0x2b3c
    272a:	80 e0       	ldi	r24, 0x00	; 0
    272c:	0e 94 25 0a 	call	0x144a	;  0x144a
    2730:	7c 01       	movw	r14, r24
    2732:	90 93 df 02 	sts	0x02DF, r25	;  0x8002df
    2736:	80 93 de 02 	sts	0x02DE, r24	;  0x8002de
    273a:	2a e0       	ldi	r18, 0x0A	; 10
    273c:	37 ed       	ldi	r19, 0xD7	; 215
    273e:	43 e2       	ldi	r20, 0x23	; 35
    2740:	5c e3       	ldi	r21, 0x3C	; 60
    2742:	60 91 62 01 	lds	r22, 0x0162	;  0x800162
    2746:	70 91 63 01 	lds	r23, 0x0163	;  0x800163
    274a:	80 91 64 01 	lds	r24, 0x0164	;  0x800164
    274e:	90 91 65 01 	lds	r25, 0x0165	;  0x800165
    2752:	ab d7       	rcall	.+3926   	;  0x36aa
    2754:	4b 01       	movw	r8, r22
    2756:	5c 01       	movw	r10, r24
    2758:	b7 01       	movw	r22, r14
    275a:	80 e0       	ldi	r24, 0x00	; 0
    275c:	90 e0       	ldi	r25, 0x00	; 0
    275e:	17 d7       	rcall	.+3630   	;  0x358e
    2760:	9b 01       	movw	r18, r22
    2762:	ac 01       	movw	r20, r24
    2764:	c5 01       	movw	r24, r10
    2766:	b4 01       	movw	r22, r8
    2768:	a0 d7       	rcall	.+3904   	;  0x36aa
    276a:	e5 d6       	rcall	.+3530   	;  0x3536
    276c:	11 23       	and	r17, r17
    276e:	09 f4       	brne	.+2      	;  0x2772
    2770:	72 c0       	rjmp	.+228    	;  0x2856
    2772:	9b 01       	movw	r18, r22
    2774:	40 e0       	ldi	r20, 0x00	; 0
    2776:	50 e0       	ldi	r21, 0x00	; 0
    2778:	6d e8       	ldi	r22, 0x8D	; 141
    277a:	77 e0       	ldi	r23, 0x07	; 7
    277c:	81 2f       	mov	r24, r17
    277e:	65 d9       	rcall	.-3382   	;  0x1a4a
    2780:	6a c0       	rjmp	.+212    	;  0x2856
    2782:	23 e8       	ldi	r18, 0x83	; 131
    2784:	37 e0       	ldi	r19, 0x07	; 7
    2786:	61 2f       	mov	r22, r17
    2788:	86 e0       	ldi	r24, 0x06	; 6
    278a:	fb dc       	rcall	.-1546   	;  0x2182
    278c:	88 23       	and	r24, r24
    278e:	09 f4       	brne	.+2      	;  0x2792
    2790:	d5 c1       	rjmp	.+938    	;  0x2b3c
    2792:	80 e0       	ldi	r24, 0x00	; 0
    2794:	0e 94 37 0a 	call	0x146e	;  0x146e
    2798:	60 93 da 02 	sts	0x02DA, r22	;  0x8002da
    279c:	70 93 db 02 	sts	0x02DB, r23	;  0x8002db
    27a0:	80 93 dc 02 	sts	0x02DC, r24	;  0x8002dc
    27a4:	90 93 dd 02 	sts	0x02DD, r25	;  0x8002dd
    27a8:	56 c0       	rjmp	.+172    	;  0x2856
    27aa:	2c e7       	ldi	r18, 0x7C	; 124
    27ac:	37 e0       	ldi	r19, 0x07	; 7
    27ae:	61 2f       	mov	r22, r17
    27b0:	82 e2       	ldi	r24, 0x22	; 34
    27b2:	92 db       	rcall	.-2268   	;  0x1ed8
    27b4:	88 23       	and	r24, r24
    27b6:	09 f4       	brne	.+2      	;  0x27ba
    27b8:	c1 c1       	rjmp	.+898    	;  0x2b3c
    27ba:	4d c0       	rjmp	.+154    	;  0x2856
    27bc:	86 e0       	ldi	r24, 0x06	; 6
    27be:	39 c0       	rjmp	.+114    	;  0x2832
    27c0:	2e e5       	ldi	r18, 0x5E	; 94
    27c2:	37 e0       	ldi	r19, 0x07	; 7
    27c4:	61 2f       	mov	r22, r17
    27c6:	86 e2       	ldi	r24, 0x26	; 38
    27c8:	dc dc       	rcall	.-1608   	;  0x2182
    27ca:	88 23       	and	r24, r24
    27cc:	09 f4       	brne	.+2      	;  0x27d0
    27ce:	b6 c1       	rjmp	.+876    	;  0x2b3c
    27d0:	80 e0       	ldi	r24, 0x00	; 0
    27d2:	0e 94 37 0a 	call	0x146e	;  0x146e
    27d6:	60 93 d6 02 	sts	0x02D6, r22	;  0x8002d6
    27da:	70 93 d7 02 	sts	0x02D7, r23	;  0x8002d7
    27de:	80 93 d8 02 	sts	0x02D8, r24	;  0x8002d8
    27e2:	90 93 d9 02 	sts	0x02D9, r25	;  0x8002d9
    27e6:	37 c0       	rjmp	.+110    	;  0x2856
    27e8:	24 e5       	ldi	r18, 0x54	; 84
    27ea:	37 e0       	ldi	r19, 0x07	; 7
    27ec:	61 2f       	mov	r22, r17
    27ee:	84 e2       	ldi	r24, 0x24	; 36
    27f0:	c8 dc       	rcall	.-1648   	;  0x2182
    27f2:	88 23       	and	r24, r24
    27f4:	09 f4       	brne	.+2      	;  0x27f8
    27f6:	a2 c1       	rjmp	.+836    	;  0x2b3c
    27f8:	80 e0       	ldi	r24, 0x00	; 0
    27fa:	0e 94 37 0a 	call	0x146e	;  0x146e
    27fe:	60 93 d2 02 	sts	0x02D2, r22	;  0x8002d2
    2802:	70 93 d3 02 	sts	0x02D3, r23	;  0x8002d3
    2806:	80 93 d4 02 	sts	0x02D4, r24	;  0x8002d4
    280a:	90 93 d5 02 	sts	0x02D5, r25	;  0x8002d5
    280e:	23 c0       	rjmp	.+70     	;  0x2856
    2810:	8f ef       	ldi	r24, 0xFF	; 255
    2812:	81 0f       	add	r24, r17
    2814:	87 30       	cpi	r24, 0x07	; 7
    2816:	50 f4       	brcc	.+20     	;  0x282c
    2818:	20 91 de 02 	lds	r18, 0x02DE	;  0x8002de
    281c:	30 91 df 02 	lds	r19, 0x02DF	;  0x8002df
    2820:	40 e0       	ldi	r20, 0x00	; 0
    2822:	50 e0       	ldi	r21, 0x00	; 0
    2824:	6f e4       	ldi	r22, 0x4F	; 79
    2826:	77 e0       	ldi	r23, 0x07	; 7
    2828:	81 2f       	mov	r24, r17
    282a:	0f d9       	rcall	.-3554   	;  0x1a4a
    282c:	80 91 67 01 	lds	r24, 0x0167	;  0x800167
    2830:	8f 5f       	subi	r24, 0xFF	; 255
    2832:	80 93 67 01 	sts	0x0167, r24	;  0x800167
    2836:	82 c1       	rjmp	.+772    	;  0x2b3c
    2838:	24 e4       	ldi	r18, 0x44	; 68
    283a:	37 e0       	ldi	r19, 0x07	; 7
    283c:	61 2f       	mov	r22, r17
    283e:	86 e1       	ldi	r24, 0x16	; 22
    2840:	4b db       	rcall	.-2410   	;  0x1ed8
    2842:	88 23       	and	r24, r24
    2844:	09 f4       	brne	.+2      	;  0x2848
    2846:	7a c1       	rjmp	.+756    	;  0x2b3c
    2848:	80 e0       	ldi	r24, 0x00	; 0
    284a:	0e 94 25 0a 	call	0x144a	;  0x144a
    284e:	90 93 e1 02 	sts	0x02E1, r25	;  0x8002e1
    2852:	80 93 e0 02 	sts	0x02E0, r24	;  0x8002e0
    2856:	80 91 67 01 	lds	r24, 0x0167	;  0x800167
    285a:	8f 5f       	subi	r24, 0xFF	; 255
    285c:	80 93 67 01 	sts	0x0167, r24	;  0x800167
    2860:	0e 94 b2 0a 	call	0x1564	;  0x1564
    2864:	14 c0       	rjmp	.+40     	;  0x288e
    2866:	80 91 66 01 	lds	r24, 0x0166	;  0x800166
    286a:	82 1b       	sub	r24, r18
    286c:	0e 94 e1 0b 	call	0x17c2	;  0x17c2
    2870:	65 d8       	rcall	.-3894   	;  0x193c
    2872:	81 e0       	ldi	r24, 0x01	; 1
    2874:	de cf       	rjmp	.-68     	;  0x2832
    2876:	40 e0       	ldi	r20, 0x00	; 0
    2878:	61 e0       	ldi	r22, 0x01	; 1
    287a:	8f e1       	ldi	r24, 0x1F	; 31
    287c:	17 db       	rcall	.-2514   	;  0x1eac
    287e:	18 16       	cp	r1, r24
    2880:	34 f4       	brge	.+12     	;  0x288e
    2882:	0e 94 b2 0a 	call	0x1564	;  0x1564
    2886:	0e 94 18 0a 	call	0x1430	;  0x1430
    288a:	80 93 69 01 	sts	0x0169, r24	;  0x800169
    288e:	80 91 e3 02 	lds	r24, 0x02E3	;  0x8002e3
    2892:	80 ff       	sbrs	r24, 0
    2894:	62 c0       	rjmp	.+196    	;  0x295a
    2896:	e0 91 66 01 	lds	r30, 0x0166	;  0x800166
    289a:	81 e0       	ldi	r24, 0x01	; 1
    289c:	8e 0f       	add	r24, r30
    289e:	80 93 66 01 	sts	0x0166, r24	;  0x800166
    28a2:	88 30       	cpi	r24, 0x08	; 8
    28a4:	08 f4       	brcc	.+2      	;  0x28a8
    28a6:	44 c0       	rjmp	.+136    	;  0x2930
    28a8:	8c 30       	cpi	r24, 0x0C	; 12
    28aa:	90 f0       	brcs	.+36     	;  0x28d0
    28ac:	0e 94 e8 0b 	call	0x17d0	;  0x17d0
    28b0:	8a 81       	ldd	r24, Y+2	; 0x02
    28b2:	84 30       	cpi	r24, 0x04	; 4
    28b4:	21 f4       	brne	.+8      	;  0x28be
    28b6:	6e e9       	ldi	r22, 0x9E	; 158
    28b8:	76 e0       	ldi	r23, 0x06	; 6
    28ba:	80 e0       	ldi	r24, 0x00	; 0
    28bc:	72 d8       	rcall	.-3868   	;  0x19a2
    28be:	86 e0       	ldi	r24, 0x06	; 6
    28c0:	80 93 66 01 	sts	0x0166, r24	;  0x800166
    28c4:	81 e0       	ldi	r24, 0x01	; 1
    28c6:	80 93 67 01 	sts	0x0167, r24	;  0x800167
    28ca:	10 92 68 01 	sts	0x0168, r1	;  0x800168
    28ce:	30 c0       	rjmp	.+96     	;  0x2930
    28d0:	80 91 68 01 	lds	r24, 0x0168	;  0x800168
    28d4:	8f 5f       	subi	r24, 0xFF	; 255
    28d6:	80 93 68 01 	sts	0x0168, r24	;  0x800168
    28da:	1a ef       	ldi	r17, 0xFA	; 250
    28dc:	1e 0f       	add	r17, r30
    28de:	e0 91 81 01 	lds	r30, 0x0181	;  0x800181
    28e2:	f0 91 82 01 	lds	r31, 0x0182	;  0x800182
    28e6:	e4 80       	ldd	r14, Z+4	; 0x04
    28e8:	f5 80       	ldd	r15, Z+5	; 0x05
    28ea:	80 e0       	ldi	r24, 0x00	; 0
    28ec:	90 e0       	ldi	r25, 0x00	; 0
    28ee:	fc 01       	movw	r30, r24
    28f0:	ed 50       	subi	r30, 0x0D	; 13
    28f2:	fe 4f       	sbci	r31, 0xFE	; 254
    28f4:	46 96       	adiw	r24, 0x16	; 22
    28f6:	dc 01       	movw	r26, r24
    28f8:	a9 53       	subi	r26, 0x39	; 57
    28fa:	be 4f       	sbci	r27, 0xFE	; 254
    28fc:	26 e1       	ldi	r18, 0x16	; 22
    28fe:	01 90       	ld	r0, Z+
    2900:	0d 92       	st	X+, r0
    2902:	2a 95       	dec	r18
    2904:	e1 f7       	brne	.-8      	;  0x28fe
    2906:	84 38       	cpi	r24, 0x84	; 132
    2908:	91 05       	cpc	r25, r1
    290a:	89 f7       	brne	.-30     	;  0x28ee
    290c:	87 e0       	ldi	r24, 0x07	; 7
    290e:	0e 94 ce 0b 	call	0x179c	;  0x179c
    2912:	e1 2f       	mov	r30, r17
    2914:	f0 e0       	ldi	r31, 0x00	; 0
    2916:	37 96       	adiw	r30, 0x07	; 7
    2918:	ee 0f       	add	r30, r30
    291a:	ff 1f       	adc	r31, r31
    291c:	d7 01       	movw	r26, r14
    291e:	8d 91       	ld	r24, X+
    2920:	9c 91       	ld	r25, X
    2922:	e8 0f       	add	r30, r24
    2924:	f9 1f       	adc	r31, r25
    2926:	65 91       	lpm	r22, Z+
    2928:	74 91       	lpm	r23, Z
    292a:	81 e6       	ldi	r24, 0x61	; 97
    292c:	92 e0       	ldi	r25, 0x02	; 2
    292e:	c2 d7       	rcall	.+3972   	;  0x38b4
    2930:	80 91 66 01 	lds	r24, 0x0166	;  0x800166
    2934:	85 30       	cpi	r24, 0x05	; 5
    2936:	19 f4       	brne	.+6      	;  0x293e
    2938:	86 e0       	ldi	r24, 0x06	; 6
    293a:	80 93 66 01 	sts	0x0166, r24	;  0x800166
    293e:	80 91 66 01 	lds	r24, 0x0166	;  0x800166
    2942:	90 91 68 01 	lds	r25, 0x0168	;  0x800168
    2946:	89 1b       	sub	r24, r25
    2948:	0e 94 e1 0b 	call	0x17c2	;  0x17c2
    294c:	0e 94 9e 0c 	call	0x193c	;  0x193c
    2950:	80 91 e3 02 	lds	r24, 0x02E3	;  0x8002e3
    2954:	8e 7f       	andi	r24, 0xFE	; 254
    2956:	80 93 e3 02 	sts	0x02E3, r24	;  0x8002e3
    295a:	80 e0       	ldi	r24, 0x00	; 0
    295c:	0e 94 15 0c 	call	0x182a	;  0x182a
    2960:	80 91 e3 02 	lds	r24, 0x02E3	;  0x8002e3
    2964:	81 ff       	sbrs	r24, 1
    2966:	f9 c0       	rjmp	.+498    	;  0x2b5a
    2968:	80 91 66 01 	lds	r24, 0x0166	;  0x800166
    296c:	88 30       	cpi	r24, 0x08	; 8
    296e:	09 f4       	brne	.+2      	;  0x2972
    2970:	77 c0       	rjmp	.+238    	;  0x2a60
    2972:	a8 f5       	brcc	.+106    	;  0x29de
    2974:	86 30       	cpi	r24, 0x06	; 6
    2976:	09 f4       	brne	.+2      	;  0x297a
    2978:	44 c0       	rjmp	.+136    	;  0x2a02
    297a:	87 30       	cpi	r24, 0x07	; 7
    297c:	09 f0       	breq	.+2      	;  0x2980
    297e:	d8 c0       	rjmp	.+432    	;  0x2b30
    2980:	60 91 da 02 	lds	r22, 0x02DA	;  0x8002da
    2984:	70 91 db 02 	lds	r23, 0x02DB	;  0x8002db
    2988:	80 91 dc 02 	lds	r24, 0x02DC	;  0x8002dc
    298c:	90 91 dd 02 	lds	r25, 0x02DD	;  0x8002dd
    2990:	d2 d5       	rcall	.+2980   	;  0x3536
    2992:	60 93 e4 02 	sts	0x02E4, r22	;  0x8002e4
    2996:	70 93 e5 02 	sts	0x02E5, r23	;  0x8002e5
    299a:	80 93 e6 02 	sts	0x02E6, r24	;  0x8002e6
    299e:	90 93 e7 02 	sts	0x02E7, r25	;  0x8002e7
    29a2:	60 91 d2 02 	lds	r22, 0x02D2	;  0x8002d2
    29a6:	70 91 d3 02 	lds	r23, 0x02D3	;  0x8002d3
    29aa:	80 91 d4 02 	lds	r24, 0x02D4	;  0x8002d4
    29ae:	90 91 d5 02 	lds	r25, 0x02D5	;  0x8002d5
    29b2:	c1 d5       	rcall	.+2946   	;  0x3536
    29b4:	60 93 e8 02 	sts	0x02E8, r22	;  0x8002e8
    29b8:	70 93 e9 02 	sts	0x02E9, r23	;  0x8002e9
    29bc:	80 93 ea 02 	sts	0x02EA, r24	;  0x8002ea
    29c0:	90 93 eb 02 	sts	0x02EB, r25	;  0x8002eb
    29c4:	10 92 ed 02 	sts	0x02ED, r1	;  0x8002ed
    29c8:	10 92 ec 02 	sts	0x02EC, r1	;  0x8002ec
    29cc:	81 e0       	ldi	r24, 0x01	; 1
    29ce:	80 93 ef 02 	sts	0x02EF, r24	;  0x8002ef
    29d2:	84 e2       	ldi	r24, 0x24	; 36
    29d4:	80 93 ee 02 	sts	0x02EE, r24	;  0x8002ee
    29d8:	84 e5       	ldi	r24, 0x54	; 84
    29da:	97 e0       	ldi	r25, 0x07	; 7
    29dc:	68 c0       	rjmp	.+208    	;  0x2aae
    29de:	8a 30       	cpi	r24, 0x0A	; 10
    29e0:	09 f4       	brne	.+2      	;  0x29e4
    29e2:	96 c0       	rjmp	.+300    	;  0x2b10
    29e4:	08 f4       	brcc	.+2      	;  0x29e8
    29e6:	70 c0       	rjmp	.+224    	;  0x2ac8
    29e8:	8b 30       	cpi	r24, 0x0B	; 11
    29ea:	09 f0       	breq	.+2      	;  0x29ee
    29ec:	a1 c0       	rjmp	.+322    	;  0x2b30
    29ee:	0e 94 f6 09 	call	0x13ec	;  0x13ec
    29f2:	29 98       	cbi	0x05, 1	; 5
    29f4:	0e 94 cb 0b 	call	0x1796	;  0x1796
    29f8:	0e 94 c5 0b 	call	0x178a	;  0x178a
    29fc:	89 eb       	ldi	r24, 0xB9	; 185
    29fe:	91 e0       	ldi	r25, 0x01	; 1
    2a00:	8e c0       	rjmp	.+284    	;  0x2b1e
    2a02:	60 91 da 02 	lds	r22, 0x02DA	;  0x8002da
    2a06:	70 91 db 02 	lds	r23, 0x02DB	;  0x8002db
    2a0a:	80 91 dc 02 	lds	r24, 0x02DC	;  0x8002dc
    2a0e:	90 91 dd 02 	lds	r25, 0x02DD	;  0x8002dd
    2a12:	91 d5       	rcall	.+2850   	;  0x3536
    2a14:	60 93 e4 02 	sts	0x02E4, r22	;  0x8002e4
    2a18:	70 93 e5 02 	sts	0x02E5, r23	;  0x8002e5
    2a1c:	80 93 e6 02 	sts	0x02E6, r24	;  0x8002e6
    2a20:	90 93 e7 02 	sts	0x02E7, r25	;  0x8002e7
    2a24:	60 91 d6 02 	lds	r22, 0x02D6	;  0x8002d6
    2a28:	70 91 d7 02 	lds	r23, 0x02D7	;  0x8002d7
    2a2c:	80 91 d8 02 	lds	r24, 0x02D8	;  0x8002d8
    2a30:	90 91 d9 02 	lds	r25, 0x02D9	;  0x8002d9
    2a34:	80 d5       	rcall	.+2816   	;  0x3536
    2a36:	60 93 e8 02 	sts	0x02E8, r22	;  0x8002e8
    2a3a:	70 93 e9 02 	sts	0x02E9, r23	;  0x8002e9
    2a3e:	80 93 ea 02 	sts	0x02EA, r24	;  0x8002ea
    2a42:	90 93 eb 02 	sts	0x02EB, r25	;  0x8002eb
    2a46:	10 92 ed 02 	sts	0x02ED, r1	;  0x8002ed
    2a4a:	10 92 ec 02 	sts	0x02EC, r1	;  0x8002ec
    2a4e:	81 e0       	ldi	r24, 0x01	; 1
    2a50:	80 93 ef 02 	sts	0x02EF, r24	;  0x8002ef
    2a54:	86 e2       	ldi	r24, 0x26	; 38
    2a56:	80 93 ee 02 	sts	0x02EE, r24	;  0x8002ee
    2a5a:	8e e5       	ldi	r24, 0x5E	; 94
    2a5c:	97 e0       	ldi	r25, 0x07	; 7
    2a5e:	27 c0       	rjmp	.+78     	;  0x2aae
    2a60:	8f ef       	ldi	r24, 0xFF	; 255
    2a62:	93 e0       	ldi	r25, 0x03	; 3
    2a64:	a0 e0       	ldi	r26, 0x00	; 0
    2a66:	b0 e0       	ldi	r27, 0x00	; 0
    2a68:	80 93 e4 02 	sts	0x02E4, r24	;  0x8002e4
    2a6c:	90 93 e5 02 	sts	0x02E5, r25	;  0x8002e5
    2a70:	a0 93 e6 02 	sts	0x02E6, r26	;  0x8002e6
    2a74:	b0 93 e7 02 	sts	0x02E7, r27	;  0x8002e7
    2a78:	80 91 de 02 	lds	r24, 0x02DE	;  0x8002de
    2a7c:	90 91 df 02 	lds	r25, 0x02DF	;  0x8002df
    2a80:	a0 e0       	ldi	r26, 0x00	; 0
    2a82:	b0 e0       	ldi	r27, 0x00	; 0
    2a84:	80 93 e8 02 	sts	0x02E8, r24	;  0x8002e8
    2a88:	90 93 e9 02 	sts	0x02E9, r25	;  0x8002e9
    2a8c:	a0 93 ea 02 	sts	0x02EA, r26	;  0x8002ea
    2a90:	b0 93 eb 02 	sts	0x02EB, r27	;  0x8002eb
    2a94:	8f ef       	ldi	r24, 0xFF	; 255
    2a96:	9f ef       	ldi	r25, 0xFF	; 255
    2a98:	90 93 ed 02 	sts	0x02ED, r25	;  0x8002ed
    2a9c:	80 93 ec 02 	sts	0x02EC, r24	;  0x8002ec
    2aa0:	10 92 ef 02 	sts	0x02EF, r1	;  0x8002ef
    2aa4:	8d e1       	ldi	r24, 0x1D	; 29
    2aa6:	80 93 ee 02 	sts	0x02EE, r24	;  0x8002ee
    2aaa:	8f e4       	ldi	r24, 0x4F	; 79
    2aac:	97 e0       	ldi	r25, 0x07	; 7
    2aae:	90 93 f1 02 	sts	0x02F1, r25	;  0x8002f1
    2ab2:	80 93 f0 02 	sts	0x02F0, r24	;  0x8002f0
    2ab6:	60 91 69 01 	lds	r22, 0x0169	;  0x800169
    2aba:	83 e8       	ldi	r24, 0x83	; 131
    2abc:	91 e0       	ldi	r25, 0x01	; 1
    2abe:	0e 94 85 05 	call	0xb0a	;  0xb0a
    2ac2:	83 e8       	ldi	r24, 0x83	; 131
    2ac4:	91 e0       	ldi	r25, 0x01	; 1
    2ac6:	2b c0       	rjmp	.+86     	;  0x2b1e
    2ac8:	10 92 e4 02 	sts	0x02E4, r1	;  0x8002e4
    2acc:	10 92 e5 02 	sts	0x02E5, r1	;  0x8002e5
    2ad0:	10 92 e6 02 	sts	0x02E6, r1	;  0x8002e6
    2ad4:	10 92 e7 02 	sts	0x02E7, r1	;  0x8002e7
    2ad8:	80 91 e0 02 	lds	r24, 0x02E0	;  0x8002e0
    2adc:	90 91 e1 02 	lds	r25, 0x02E1	;  0x8002e1
    2ae0:	a0 e0       	ldi	r26, 0x00	; 0
    2ae2:	b0 e0       	ldi	r27, 0x00	; 0
    2ae4:	80 93 e8 02 	sts	0x02E8, r24	;  0x8002e8
    2ae8:	90 93 e9 02 	sts	0x02E9, r25	;  0x8002e9
    2aec:	a0 93 ea 02 	sts	0x02EA, r26	;  0x8002ea
    2af0:	b0 93 eb 02 	sts	0x02EB, r27	;  0x8002eb
    2af4:	8a e5       	ldi	r24, 0x5A	; 90
    2af6:	90 e0       	ldi	r25, 0x00	; 0
    2af8:	90 93 ed 02 	sts	0x02ED, r25	;  0x8002ed
    2afc:	80 93 ec 02 	sts	0x02EC, r24	;  0x8002ec
    2b00:	10 92 ef 02 	sts	0x02EF, r1	;  0x8002ef
    2b04:	86 e1       	ldi	r24, 0x16	; 22
    2b06:	80 93 ee 02 	sts	0x02EE, r24	;  0x8002ee
    2b0a:	84 e4       	ldi	r24, 0x44	; 68
    2b0c:	97 e0       	ldi	r25, 0x07	; 7
    2b0e:	cf cf       	rjmp	.-98     	;  0x2aae
    2b10:	6a 81       	ldd	r22, Y+2	; 0x02
    2b12:	85 e9       	ldi	r24, 0x95	; 149
    2b14:	91 e0       	ldi	r25, 0x01	; 1
    2b16:	0e 94 82 05 	call	0xb04	;  0xb04
    2b1a:	85 e9       	ldi	r24, 0x95	; 149
    2b1c:	91 e0       	ldi	r25, 0x01	; 1
    2b1e:	90 93 82 01 	sts	0x0182, r25	;  0x800182
    2b22:	80 93 81 01 	sts	0x0181, r24	;  0x800181
    2b26:	80 91 e3 02 	lds	r24, 0x02E3	;  0x8002e3
    2b2a:	84 60       	ori	r24, 0x04	; 4
    2b2c:	80 93 e3 02 	sts	0x02E3, r24	;  0x8002e3
    2b30:	80 91 e3 02 	lds	r24, 0x02E3	;  0x8002e3
    2b34:	8d 7f       	andi	r24, 0xFD	; 253
    2b36:	80 93 e3 02 	sts	0x02E3, r24	;  0x8002e3
    2b3a:	0f c0       	rjmp	.+30     	;  0x2b5a
    2b3c:	0e 94 bc 0a 	call	0x1578	;  0x1578
    2b40:	88 23       	and	r24, r24
    2b42:	09 f4       	brne	.+2      	;  0x2b46
    2b44:	a4 ce       	rjmp	.-696    	;  0x288e
    2b46:	65 e0       	ldi	r22, 0x05	; 5
    2b48:	77 e0       	ldi	r23, 0x07	; 7
    2b4a:	80 e0       	ldi	r24, 0x00	; 0
    2b4c:	0e 94 d1 0c 	call	0x19a2	;  0x19a2
    2b50:	0e 94 9e 0c 	call	0x193c	;  0x193c
    2b54:	10 92 69 01 	sts	0x0169, r1	;  0x800169
    2b58:	9a ce       	rjmp	.-716    	;  0x288e
    2b5a:	df 91       	pop	r29
    2b5c:	cf 91       	pop	r28
    2b5e:	1f 91       	pop	r17
    2b60:	ff 90       	pop	r15
    2b62:	ef 90       	pop	r14
    2b64:	bf 90       	pop	r11
    2b66:	af 90       	pop	r10
    2b68:	9f 90       	pop	r9
    2b6a:	8f 90       	pop	r8
    2b6c:	08 95       	ret
    2b6e:	a5 e0       	ldi	r26, 0x05	; 5
    2b70:	b0 e0       	ldi	r27, 0x00	; 0
    2b72:	ec eb       	ldi	r30, 0xBC	; 188
    2b74:	f5 e1       	ldi	r31, 0x15	; 21
    2b76:	3e c6       	rjmp	.+3196   	;  0x37f4
    2b78:	8c 01       	movw	r16, r24
    2b7a:	80 91 e3 02 	lds	r24, 0x02E3	;  0x8002e3
    2b7e:	82 ff       	sbrs	r24, 2
    2b80:	54 c0       	rjmp	.+168    	;  0x2c2a
    2b82:	80 91 e2 02 	lds	r24, 0x02E2	;  0x8002e2
    2b86:	80 ff       	sbrs	r24, 0
    2b88:	29 9a       	sbi	0x05, 1	; 5
    2b8a:	0e 94 e8 0b 	call	0x17d0	;  0x17d0
    2b8e:	87 e0       	ldi	r24, 0x07	; 7
    2b90:	80 93 c5 01 	sts	0x01C5, r24	;  0x8001c5
    2b94:	88 e3       	ldi	r24, 0x38	; 56
    2b96:	80 93 c6 01 	sts	0x01C6, r24	;  0x8001c6
    2b9a:	0e 94 9e 0c 	call	0x193c	;  0x193c
    2b9e:	10 92 61 01 	sts	0x0161, r1	;  0x800161
    2ba2:	10 92 60 01 	sts	0x0160, r1	;  0x800160
    2ba6:	8f ef       	ldi	r24, 0xFF	; 255
    2ba8:	80 93 5f 01 	sts	0x015F, r24	;  0x80015f
    2bac:	8f eb       	ldi	r24, 0xBF	; 191
    2bae:	91 e0       	ldi	r25, 0x01	; 1
    2bb0:	0e 94 bf 04 	call	0x97e	;  0x97e
    2bb4:	f8 01       	movw	r30, r16
    2bb6:	82 81       	ldd	r24, Z+2	; 0x02
    2bb8:	80 93 5e 01 	sts	0x015E, r24	;  0x80015e
    2bbc:	81 30       	cpi	r24, 0x01	; 1
    2bbe:	21 f4       	brne	.+8      	;  0x2bc8
    2bc0:	40 98       	cbi	0x08, 0	; 8
    2bc2:	0e 94 b3 05 	call	0xb66	;  0xb66
    2bc6:	2c c0       	rjmp	.+88     	;  0x2c20
    2bc8:	82 30       	cpi	r24, 0x02	; 2
    2bca:	11 f4       	brne	.+4      	;  0x2bd0
    2bcc:	40 9a       	sbi	0x08, 0	; 8
    2bce:	28 c0       	rjmp	.+80     	;  0x2c20
    2bd0:	e0 91 11 01 	lds	r30, 0x0111	;  0x800111
    2bd4:	04 e0       	ldi	r16, 0x04	; 4
    2bd6:	e0 9f       	mul	r30, r16
    2bd8:	f0 01       	movw	r30, r0
    2bda:	11 24       	eor	r1, r1
    2bdc:	e8 5e       	subi	r30, 0xE8	; 232
    2bde:	fe 4f       	sbci	r31, 0xFE	; 254
    2be0:	60 81       	ld	r22, Z
    2be2:	71 81       	ldd	r23, Z+1	; 0x01
    2be4:	82 81       	ldd	r24, Z+2	; 0x02
    2be6:	93 81       	ldd	r25, Z+3	; 0x03
    2be8:	0e 94 95 0b 	call	0x172a	;  0x172a
    2bec:	80 91 5e 01 	lds	r24, 0x015E	;  0x80015e
    2bf0:	84 30       	cpi	r24, 0x04	; 4
    2bf2:	21 f4       	brne	.+8      	;  0x2bfc
    2bf4:	0e 94 cb 0b 	call	0x1796	;  0x1796
    2bf8:	11 e0       	ldi	r17, 0x01	; 1
    2bfa:	07 c0       	rjmp	.+14     	;  0x2c0a
    2bfc:	83 30       	cpi	r24, 0x03	; 3
    2bfe:	21 f4       	brne	.+8      	;  0x2c08
    2c00:	0e 94 c5 0b 	call	0x178a	;  0x178a
    2c04:	0e 94 c8 0b 	call	0x1790	;  0x1790
    2c08:	10 e0       	ldi	r17, 0x00	; 0
    2c0a:	82 e3       	ldi	r24, 0x32	; 50
    2c0c:	90 e0       	ldi	r25, 0x00	; 0
    2c0e:	0e 94 a0 0a 	call	0x1540	;  0x1540
    2c12:	0e 94 96 0a 	call	0x152c	;  0x152c
    2c16:	10 92 5d 01 	sts	0x015D, r1	;  0x80015d
    2c1a:	81 2f       	mov	r24, r17
    2c1c:	0e 94 e8 09 	call	0x13d0	;  0x13d0
    2c20:	80 91 e3 02 	lds	r24, 0x02E3	;  0x8002e3
    2c24:	8b 7f       	andi	r24, 0xFB	; 251
    2c26:	80 93 e3 02 	sts	0x02E3, r24	;  0x8002e3
    2c2a:	0e 94 85 04 	call	0x90a	;  0x90a
    2c2e:	18 2f       	mov	r17, r24
    2c30:	80 91 5e 01 	lds	r24, 0x015E	;  0x80015e
    2c34:	81 30       	cpi	r24, 0x01	; 1
    2c36:	09 f5       	brne	.+66     	;  0x2c7a
    2c38:	0e 94 d1 05 	call	0xba2	;  0xba2
    2c3c:	9c 01       	movw	r18, r24
    2c3e:	bc 01       	movw	r22, r24
    2c40:	6e 5f       	subi	r22, 0xFE	; 254
    2c42:	7f 4f       	sbci	r23, 0xFF	; 255
    2c44:	80 e0       	ldi	r24, 0x00	; 0
    2c46:	90 e0       	ldi	r25, 0x00	; 0
    2c48:	60 93 59 01 	sts	0x0159, r22	;  0x800159
    2c4c:	70 93 5a 01 	sts	0x015A, r23	;  0x80015a
    2c50:	80 93 5b 01 	sts	0x015B, r24	;  0x80015b
    2c54:	90 93 5c 01 	sts	0x015C, r25	;  0x80015c
    2c58:	27 55       	subi	r18, 0x57	; 87
    2c5a:	32 40       	sbci	r19, 0x02	; 2
    2c5c:	0c e0       	ldi	r16, 0x0C	; 12
    2c5e:	26 3a       	cpi	r18, 0xA6	; 166
    2c60:	3d 4f       	sbci	r19, 0xFD	; 253
    2c62:	18 f4       	brcc	.+6      	;  0x2c6a
    2c64:	22 e0       	ldi	r18, 0x02	; 2
    2c66:	41 e0       	ldi	r20, 0x01	; 1
    2c68:	05 c0       	rjmp	.+10     	;  0x2c74
    2c6a:	22 e0       	ldi	r18, 0x02	; 2
    2c6c:	41 e0       	ldi	r20, 0x01	; 1
    2c6e:	60 e0       	ldi	r22, 0x00	; 0
    2c70:	70 e0       	ldi	r23, 0x00	; 0
    2c72:	cb 01       	movw	r24, r22
    2c74:	0e 94 b5 07 	call	0xf6a	;  0xf6a
    2c78:	b6 c0       	rjmp	.+364    	;  0x2de6
    2c7a:	82 30       	cpi	r24, 0x02	; 2
    2c7c:	c1 f5       	brne	.+112    	;  0x2cee
    2c7e:	11 23       	and	r17, r17
    2c80:	09 f4       	brne	.+2      	;  0x2c84
    2c82:	b1 c0       	rjmp	.+354    	;  0x2de6
    2c84:	80 91 bf 01 	lds	r24, 0x01BF	;  0x8001bf
    2c88:	90 91 c0 01 	lds	r25, 0x01C0	;  0x8001c0
    2c8c:	0e 94 cb 04 	call	0x996	;  0x996
    2c90:	40 91 59 01 	lds	r20, 0x0159	;  0x800159
    2c94:	50 91 5a 01 	lds	r21, 0x015A	;  0x80015a
    2c98:	60 91 5b 01 	lds	r22, 0x015B	;  0x80015b
    2c9c:	70 91 5c 01 	lds	r23, 0x015C	;  0x80015c
    2ca0:	4a 01       	movw	r8, r20
    2ca2:	5b 01       	movw	r10, r22
    2ca4:	a2 e0       	ldi	r26, 0x02	; 2
    2ca6:	b6 94       	lsr	r11
    2ca8:	a7 94       	ror	r10
    2caa:	97 94       	ror	r9
    2cac:	87 94       	ror	r8
    2cae:	aa 95       	dec	r26
    2cb0:	d1 f7       	brne	.-12     	;  0x2ca6
    2cb2:	48 19       	sub	r20, r8
    2cb4:	59 09       	sbc	r21, r9
    2cb6:	6a 09       	sbc	r22, r10
    2cb8:	7b 09       	sbc	r23, r11
    2cba:	96 95       	lsr	r25
    2cbc:	87 95       	ror	r24
    2cbe:	96 95       	lsr	r25
    2cc0:	87 95       	ror	r24
    2cc2:	6a 01       	movw	r12, r20
    2cc4:	7b 01       	movw	r14, r22
    2cc6:	c8 0e       	add	r12, r24
    2cc8:	d9 1e       	adc	r13, r25
    2cca:	e1 1c       	adc	r14, r1
    2ccc:	f1 1c       	adc	r15, r1
    2cce:	c7 01       	movw	r24, r14
    2cd0:	b6 01       	movw	r22, r12
    2cd2:	c0 92 59 01 	sts	0x0159, r12	;  0x800159
    2cd6:	d0 92 5a 01 	sts	0x015A, r13	;  0x80015a
    2cda:	e0 92 5b 01 	sts	0x015B, r14	;  0x80015b
    2cde:	f0 92 5c 01 	sts	0x015C, r15	;  0x80015c
    2ce2:	0c e0       	ldi	r16, 0x0C	; 12
    2ce4:	22 e0       	ldi	r18, 0x02	; 2
    2ce6:	42 e0       	ldi	r20, 0x02	; 2
    2ce8:	0e 94 d2 07 	call	0xfa4	;  0xfa4
    2cec:	7c c0       	rjmp	.+248    	;  0x2de6
    2cee:	40 91 5d 01 	lds	r20, 0x015D	;  0x80015d
    2cf2:	44 23       	and	r20, r20
    2cf4:	09 f4       	brne	.+2      	;  0x2cf8
    2cf6:	6b c0       	rjmp	.+214    	;  0x2dce
    2cf8:	80 91 58 01 	lds	r24, 0x0158	;  0x800158
    2cfc:	88 23       	and	r24, r24
    2cfe:	19 f0       	breq	.+6      	;  0x2d06
    2d00:	81 30       	cpi	r24, 0x01	; 1
    2d02:	c1 f0       	breq	.+48     	;  0x2d34
    2d04:	59 c0       	rjmp	.+178    	;  0x2db8
    2d06:	62 e0       	ldi	r22, 0x02	; 2
    2d08:	82 e0       	ldi	r24, 0x02	; 2
    2d0a:	d0 d8       	rcall	.-3680   	;  0x1eac
    2d0c:	88 23       	and	r24, r24
    2d0e:	09 f4       	brne	.+2      	;  0x2d12
    2d10:	53 c0       	rjmp	.+166    	;  0x2db8
    2d12:	80 e0       	ldi	r24, 0x00	; 0
    2d14:	0e 94 37 0a 	call	0x146e	;  0x146e
    2d18:	60 93 54 01 	sts	0x0154, r22	;  0x800154
    2d1c:	70 93 55 01 	sts	0x0155, r23	;  0x800155
    2d20:	80 93 56 01 	sts	0x0156, r24	;  0x800156
    2d24:	90 93 57 01 	sts	0x0157, r25	;  0x800157
    2d28:	80 91 58 01 	lds	r24, 0x0158	;  0x800158
    2d2c:	8f 5f       	subi	r24, 0xFF	; 255
    2d2e:	80 93 58 01 	sts	0x0158, r24	;  0x800158
    2d32:	66 c2       	rjmp	.+1228   	;  0x3200
    2d34:	61 e0       	ldi	r22, 0x01	; 1
    2d36:	8d e1       	ldi	r24, 0x1D	; 29
    2d38:	b9 d8       	rcall	.-3726   	;  0x1eac
    2d3a:	88 23       	and	r24, r24
    2d3c:	09 f4       	brne	.+2      	;  0x2d40
    2d3e:	3c c0       	rjmp	.+120    	;  0x2db8
    2d40:	80 e0       	ldi	r24, 0x00	; 0
    2d42:	0e 94 25 0a 	call	0x144a	;  0x144a
    2d46:	7c 01       	movw	r14, r24
    2d48:	40 91 5d 01 	lds	r20, 0x015D	;  0x80015d
    2d4c:	50 e0       	ldi	r21, 0x00	; 0
    2d4e:	6d ed       	ldi	r22, 0xDD	; 221
    2d50:	74 e0       	ldi	r23, 0x04	; 4
    2d52:	82 e0       	ldi	r24, 0x02	; 2
    2d54:	ae da       	rcall	.-2724   	;  0x22b2
    2d56:	a7 01       	movw	r20, r14
    2d58:	67 ed       	ldi	r22, 0xD7	; 215
    2d5a:	74 e0       	ldi	r23, 0x04	; 4
    2d5c:	83 e0       	ldi	r24, 0x03	; 3
    2d5e:	a9 da       	rcall	.-2734   	;  0x22b2
    2d60:	82 e0       	ldi	r24, 0x02	; 2
    2d62:	0e 94 15 0c 	call	0x182a	;  0x182a
    2d66:	83 e0       	ldi	r24, 0x03	; 3
    2d68:	0e 94 15 0c 	call	0x182a	;  0x182a
    2d6c:	2a e0       	ldi	r18, 0x0A	; 10
    2d6e:	37 ed       	ldi	r19, 0xD7	; 215
    2d70:	43 e2       	ldi	r20, 0x23	; 35
    2d72:	5c e3       	ldi	r21, 0x3C	; 60
    2d74:	60 91 54 01 	lds	r22, 0x0154	;  0x800154
    2d78:	70 91 55 01 	lds	r23, 0x0155	;  0x800155
    2d7c:	80 91 56 01 	lds	r24, 0x0156	;  0x800156
    2d80:	90 91 57 01 	lds	r25, 0x0157	;  0x800157
    2d84:	92 d4       	rcall	.+2340   	;  0x36aa
    2d86:	4b 01       	movw	r8, r22
    2d88:	5c 01       	movw	r10, r24
    2d8a:	b7 01       	movw	r22, r14
    2d8c:	80 e0       	ldi	r24, 0x00	; 0
    2d8e:	90 e0       	ldi	r25, 0x00	; 0
    2d90:	fe d3       	rcall	.+2044   	;  0x358e
    2d92:	9b 01       	movw	r18, r22
    2d94:	ac 01       	movw	r20, r24
    2d96:	c5 01       	movw	r24, r10
    2d98:	b4 01       	movw	r22, r8
    2d9a:	87 d4       	rcall	.+2318   	;  0x36aa
    2d9c:	cc d3       	rcall	.+1944   	;  0x3536
    2d9e:	80 e0       	ldi	r24, 0x00	; 0
    2da0:	90 e0       	ldi	r25, 0x00	; 0
    2da2:	cc 24       	eor	r12, r12
    2da4:	c3 94       	inc	r12
    2da6:	e1 2c       	mov	r14, r1
    2da8:	02 e0       	ldi	r16, 0x02	; 2
    2daa:	20 e0       	ldi	r18, 0x00	; 0
    2dac:	40 e0       	ldi	r20, 0x00	; 0
    2dae:	0e 94 18 07 	call	0xe30	;  0xe30
    2db2:	10 92 58 01 	sts	0x0158, r1	;  0x800158
    2db6:	24 c2       	rjmp	.+1096   	;  0x3200
    2db8:	0e 94 bc 0a 	call	0x1578	;  0x1578
    2dbc:	88 23       	and	r24, r24
    2dbe:	99 f0       	breq	.+38     	;  0x2de6
    2dc0:	0e 94 e8 0b 	call	0x17d0	;  0x17d0
    2dc4:	0e 94 9e 0c 	call	0x193c	;  0x193c
    2dc8:	10 92 5d 01 	sts	0x015D, r1	;  0x80015d
    2dcc:	0c c0       	rjmp	.+24     	;  0x2de6
    2dce:	40 e0       	ldi	r20, 0x00	; 0
    2dd0:	61 e0       	ldi	r22, 0x01	; 1
    2dd2:	8f e1       	ldi	r24, 0x1F	; 31
    2dd4:	6b d8       	rcall	.-3882   	;  0x1eac
    2dd6:	18 16       	cp	r1, r24
    2dd8:	34 f4       	brge	.+12     	;  0x2de6
    2dda:	0e 94 b2 0a 	call	0x1564	;  0x1564
    2dde:	0e 94 18 0a 	call	0x1430	;  0x1430
    2de2:	80 93 5d 01 	sts	0x015D, r24	;  0x80015d
    2de6:	80 91 60 01 	lds	r24, 0x0160	;  0x800160
    2dea:	88 23       	and	r24, r24
    2dec:	09 f4       	brne	.+2      	;  0x2df0
    2dee:	3d c1       	rjmp	.+634    	;  0x306a
    2df0:	30 91 5e 01 	lds	r19, 0x015E	;  0x80015e
    2df4:	80 91 59 01 	lds	r24, 0x0159	;  0x800159
    2df8:	90 91 5a 01 	lds	r25, 0x015A	;  0x80015a
    2dfc:	20 91 4e 01 	lds	r18, 0x014E	;  0x80014e
    2e00:	22 30       	cpi	r18, 0x02	; 2
    2e02:	09 f4       	brne	.+2      	;  0x2e06
    2e04:	47 c0       	rjmp	.+142    	;  0x2e94
    2e06:	28 f4       	brcc	.+10     	;  0x2e12
    2e08:	22 23       	and	r18, r18
    2e0a:	51 f0       	breq	.+20     	;  0x2e20
    2e0c:	21 30       	cpi	r18, 0x01	; 1
    2e0e:	c9 f0       	breq	.+50     	;  0x2e42
    2e10:	93 c0       	rjmp	.+294    	;  0x2f38
    2e12:	23 30       	cpi	r18, 0x03	; 3
    2e14:	09 f4       	brne	.+2      	;  0x2e18
    2e16:	5b c0       	rjmp	.+182    	;  0x2ece
    2e18:	24 30       	cpi	r18, 0x04	; 4
    2e1a:	09 f4       	brne	.+2      	;  0x2e1e
    2e1c:	75 c0       	rjmp	.+234    	;  0x2f08
    2e1e:	8c c0       	rjmp	.+280    	;  0x2f38
    2e20:	32 30       	cpi	r19, 0x02	; 2
    2e22:	29 f4       	brne	.+10     	;  0x2e2e
    2e24:	83 3e       	cpi	r24, 0xE3	; 227
    2e26:	95 40       	sbci	r25, 0x05	; 5
    2e28:	08 f4       	brcc	.+2      	;  0x2e2c
    2e2a:	98 c0       	rjmp	.+304    	;  0x2f5c
    2e2c:	ec c1       	rjmp	.+984    	;  0x3206
    2e2e:	31 30       	cpi	r19, 0x01	; 1
    2e30:	09 f0       	breq	.+2      	;  0x2e34
    2e32:	e9 c1       	rjmp	.+978    	;  0x3206
    2e34:	84 5a       	subi	r24, 0xA4	; 164
    2e36:	9b 40       	sbci	r25, 0x0B	; 11
    2e38:	89 30       	cpi	r24, 0x09	; 9
    2e3a:	9f 42       	sbci	r25, 0x2F	; 47
    2e3c:	08 f4       	brcc	.+2      	;  0x2e40
    2e3e:	8e c0       	rjmp	.+284    	;  0x2f5c
    2e40:	e2 c1       	rjmp	.+964    	;  0x3206
    2e42:	32 30       	cpi	r19, 0x02	; 2
    2e44:	51 f4       	brne	.+20     	;  0x2e5a
    2e46:	8c 58       	subi	r24, 0x8C	; 140
    2e48:	91 09       	sbc	r25, r1
    2e4a:	8a 3f       	cpi	r24, 0xFA	; 250
    2e4c:	2f ef       	ldi	r18, 0xFF	; 255
    2e4e:	92 07       	cpc	r25, r18
    2e50:	fc f0       	brlt	.+62     	;  0x2e90
    2e52:	21 e0       	ldi	r18, 0x01	; 1
    2e54:	07 97       	sbiw	r24, 0x07	; 7
    2e56:	c4 f0       	brlt	.+48     	;  0x2e88
    2e58:	16 c0       	rjmp	.+44     	;  0x2e86
    2e5a:	31 30       	cpi	r19, 0x01	; 1
    2e5c:	09 f0       	breq	.+2      	;  0x2e60
    2e5e:	bd c0       	rjmp	.+378    	;  0x2fda
    2e60:	9c 01       	movw	r18, r24
    2e62:	28 54       	subi	r18, 0x48	; 72
    2e64:	3d 40       	sbci	r19, 0x0D	; 13
    2e66:	2c 3e       	cpi	r18, 0xEC	; 236
    2e68:	4f ef       	ldi	r20, 0xFF	; 255
    2e6a:	34 07       	cpc	r19, r20
    2e6c:	1c f0       	brlt	.+6      	;  0x2e74
    2e6e:	25 31       	cpi	r18, 0x15	; 21
    2e70:	31 05       	cpc	r19, r1
    2e72:	64 f0       	brlt	.+24     	;  0x2e8c
    2e74:	88 59       	subi	r24, 0x98	; 152
    2e76:	9a 43       	sbci	r25, 0x3A	; 58
    2e78:	8c 3e       	cpi	r24, 0xEC	; 236
    2e7a:	ef ef       	ldi	r30, 0xFF	; 255
    2e7c:	9e 07       	cpc	r25, r30
    2e7e:	44 f0       	brlt	.+16     	;  0x2e90
    2e80:	21 e0       	ldi	r18, 0x01	; 1
    2e82:	45 97       	sbiw	r24, 0x15	; 21
    2e84:	0c f0       	brlt	.+2      	;  0x2e88
    2e86:	20 e0       	ldi	r18, 0x00	; 0
    2e88:	82 2f       	mov	r24, r18
    2e8a:	7d c0       	rjmp	.+250    	;  0x2f86
    2e8c:	81 e0       	ldi	r24, 0x01	; 1
    2e8e:	7b c0       	rjmp	.+246    	;  0x2f86
    2e90:	80 e0       	ldi	r24, 0x00	; 0
    2e92:	79 c0       	rjmp	.+242    	;  0x2f86
    2e94:	32 30       	cpi	r19, 0x02	; 2
    2e96:	51 f4       	brne	.+20     	;  0x2eac
    2e98:	82 58       	subi	r24, 0x82	; 130
    2e9a:	91 09       	sbc	r25, r1
    2e9c:	8a 3f       	cpi	r24, 0xFA	; 250
    2e9e:	ff ef       	ldi	r31, 0xFF	; 255
    2ea0:	9f 07       	cpc	r25, r31
    2ea2:	9c f0       	brlt	.+38     	;  0x2eca
    2ea4:	21 e0       	ldi	r18, 0x01	; 1
    2ea6:	07 97       	sbiw	r24, 0x07	; 7
    2ea8:	74 f0       	brlt	.+28     	;  0x2ec6
    2eaa:	0c c0       	rjmp	.+24     	;  0x2ec4
    2eac:	31 30       	cpi	r19, 0x01	; 1
    2eae:	09 f0       	breq	.+2      	;  0x2eb2
    2eb0:	94 c0       	rjmp	.+296    	;  0x2fda
    2eb2:	84 5e       	subi	r24, 0xE4	; 228
    2eb4:	9c 40       	sbci	r25, 0x0C	; 12
    2eb6:	8c 3e       	cpi	r24, 0xEC	; 236
    2eb8:	0f ef       	ldi	r16, 0xFF	; 255
    2eba:	90 07       	cpc	r25, r16
    2ebc:	34 f0       	brlt	.+12     	;  0x2eca
    2ebe:	21 e0       	ldi	r18, 0x01	; 1
    2ec0:	45 97       	sbiw	r24, 0x15	; 21
    2ec2:	0c f0       	brlt	.+2      	;  0x2ec6
    2ec4:	20 e0       	ldi	r18, 0x00	; 0
    2ec6:	82 2f       	mov	r24, r18
    2ec8:	6e c0       	rjmp	.+220    	;  0x2fa6
    2eca:	80 e0       	ldi	r24, 0x00	; 0
    2ecc:	6c c0       	rjmp	.+216    	;  0x2fa6
    2ece:	32 30       	cpi	r19, 0x02	; 2
    2ed0:	51 f4       	brne	.+20     	;  0x2ee6
    2ed2:	84 50       	subi	r24, 0x04	; 4
    2ed4:	91 40       	sbci	r25, 0x01	; 1
    2ed6:	8a 3f       	cpi	r24, 0xFA	; 250
    2ed8:	1f ef       	ldi	r17, 0xFF	; 255
    2eda:	91 07       	cpc	r25, r17
    2edc:	9c f0       	brlt	.+38     	;  0x2f04
    2ede:	21 e0       	ldi	r18, 0x01	; 1
    2ee0:	07 97       	sbiw	r24, 0x07	; 7
    2ee2:	74 f0       	brlt	.+28     	;  0x2f00
    2ee4:	0c c0       	rjmp	.+24     	;  0x2efe
    2ee6:	31 30       	cpi	r19, 0x01	; 1
    2ee8:	09 f0       	breq	.+2      	;  0x2eec
    2eea:	1c c1       	rjmp	.+568    	;  0x3124
    2eec:	88 5f       	subi	r24, 0xF8	; 248
    2eee:	91 41       	sbci	r25, 0x11	; 17
    2ef0:	8c 3e       	cpi	r24, 0xEC	; 236
    2ef2:	2f ef       	ldi	r18, 0xFF	; 255
    2ef4:	92 07       	cpc	r25, r18
    2ef6:	34 f0       	brlt	.+12     	;  0x2f04
    2ef8:	21 e0       	ldi	r18, 0x01	; 1
    2efa:	45 97       	sbiw	r24, 0x15	; 21
    2efc:	0c f0       	brlt	.+2      	;  0x2f00
    2efe:	20 e0       	ldi	r18, 0x00	; 0
    2f00:	82 2f       	mov	r24, r18
    2f02:	62 c0       	rjmp	.+196    	;  0x2fc8
    2f04:	80 e0       	ldi	r24, 0x00	; 0
    2f06:	60 c0       	rjmp	.+192    	;  0x2fc8
    2f08:	32 30       	cpi	r19, 0x02	; 2
    2f0a:	29 f4       	brne	.+10     	;  0x2f16
    2f0c:	08 96       	adiw	r24, 0x08	; 8
    2f0e:	21 e0       	ldi	r18, 0x01	; 1
    2f10:	41 97       	sbiw	r24, 0x11	; 17
    2f12:	70 f0       	brcs	.+28     	;  0x2f30
    2f14:	0c c0       	rjmp	.+24     	;  0x2f2e
    2f16:	31 30       	cpi	r19, 0x01	; 1
    2f18:	09 f0       	breq	.+2      	;  0x2f1c
    2f1a:	80 c0       	rjmp	.+256    	;  0x301c
    2f1c:	88 58       	subi	r24, 0x88	; 136
    2f1e:	93 41       	sbci	r25, 0x13	; 19
    2f20:	8c 3e       	cpi	r24, 0xEC	; 236
    2f22:	3f ef       	ldi	r19, 0xFF	; 255
    2f24:	93 07       	cpc	r25, r19
    2f26:	34 f0       	brlt	.+12     	;  0x2f34
    2f28:	21 e0       	ldi	r18, 0x01	; 1
    2f2a:	45 97       	sbiw	r24, 0x15	; 21
    2f2c:	0c f0       	brlt	.+2      	;  0x2f30
    2f2e:	20 e0       	ldi	r18, 0x00	; 0
    2f30:	82 2f       	mov	r24, r18
    2f32:	56 c0       	rjmp	.+172    	;  0x2fe0
    2f34:	80 e0       	ldi	r24, 0x00	; 0
    2f36:	54 c0       	rjmp	.+168    	;  0x2fe0
    2f38:	22 30       	cpi	r18, 0x02	; 2
    2f3a:	09 f4       	brne	.+2      	;  0x2f3e
    2f3c:	4e c0       	rjmp	.+156    	;  0x2fda
    2f3e:	38 f4       	brcc	.+14     	;  0x2f4e
    2f40:	22 23       	and	r18, r18
    2f42:	09 f4       	brne	.+2      	;  0x2f46
    2f44:	60 c1       	rjmp	.+704    	;  0x3206
    2f46:	21 30       	cpi	r18, 0x01	; 1
    2f48:	09 f4       	brne	.+2      	;  0x2f4c
    2f4a:	47 c0       	rjmp	.+142    	;  0x2fda
    2f4c:	eb c0       	rjmp	.+470    	;  0x3124
    2f4e:	23 30       	cpi	r18, 0x03	; 3
    2f50:	09 f4       	brne	.+2      	;  0x2f54
    2f52:	e8 c0       	rjmp	.+464    	;  0x3124
    2f54:	24 30       	cpi	r18, 0x04	; 4
    2f56:	09 f4       	brne	.+2      	;  0x2f5a
    2f58:	61 c0       	rjmp	.+194    	;  0x301c
    2f5a:	e4 c0       	rjmp	.+456    	;  0x3124
    2f5c:	87 e6       	ldi	r24, 0x67	; 103
    2f5e:	98 e0       	ldi	r25, 0x08	; 8
    2f60:	a2 d9       	rcall	.-3260   	;  0x22a6
    2f62:	0e 94 a6 05 	call	0xb4c	;  0xb4c
    2f66:	81 e0       	ldi	r24, 0x01	; 1
    2f68:	80 93 4e 01 	sts	0x014E, r24	;  0x80014e
    2f6c:	10 92 4a 01 	sts	0x014A, r1	;  0x80014a
    2f70:	10 92 4b 01 	sts	0x014B, r1	;  0x80014b
    2f74:	10 92 4c 01 	sts	0x014C, r1	;  0x80014c
    2f78:	10 92 4d 01 	sts	0x014D, r1	;  0x80014d
    2f7c:	88 ee       	ldi	r24, 0xE8	; 232
    2f7e:	93 e0       	ldi	r25, 0x03	; 3
    2f80:	0e 94 a0 0a 	call	0x1540	;  0x1540
    2f84:	2a c0       	rjmp	.+84     	;  0x2fda
    2f86:	88 23       	and	r24, r24
    2f88:	41 f1       	breq	.+80     	;  0x2fda
    2f8a:	82 e5       	ldi	r24, 0x52	; 82
    2f8c:	98 e0       	ldi	r25, 0x08	; 8
    2f8e:	8b d9       	rcall	.-3306   	;  0x22a6
    2f90:	0e 94 a9 0a 	call	0x1552	;  0x1552
    2f94:	88 23       	and	r24, r24
    2f96:	09 f4       	brne	.+2      	;  0x2f9a
    2f98:	c5 c0       	rjmp	.+394    	;  0x3124
    2f9a:	8d ea       	ldi	r24, 0xAD	; 173
    2f9c:	91 e0       	ldi	r25, 0x01	; 1
    2f9e:	0e 94 88 05 	call	0xb10	;  0xb10
    2fa2:	82 e0       	ldi	r24, 0x02	; 2
    2fa4:	0e c0       	rjmp	.+28     	;  0x2fc2
    2fa6:	88 23       	and	r24, r24
    2fa8:	c1 f0       	breq	.+48     	;  0x2fda
    2faa:	0e 94 a9 0a 	call	0x1552	;  0x1552
    2fae:	88 23       	and	r24, r24
    2fb0:	09 f4       	brne	.+2      	;  0x2fb4
    2fb2:	b8 c0       	rjmp	.+368    	;  0x3124
    2fb4:	8d e7       	ldi	r24, 0x7D	; 125
    2fb6:	98 e0       	ldi	r25, 0x08	; 8
    2fb8:	76 d9       	rcall	.-3348   	;  0x22a6
    2fba:	82 e0       	ldi	r24, 0x02	; 2
    2fbc:	0e 94 c5 0a 	call	0x158a	;  0x158a
    2fc0:	83 e0       	ldi	r24, 0x03	; 3
    2fc2:	80 93 4e 01 	sts	0x014E, r24	;  0x80014e
    2fc6:	ae c0       	rjmp	.+348    	;  0x3124
    2fc8:	88 23       	and	r24, r24
    2fca:	09 f4       	brne	.+2      	;  0x2fce
    2fcc:	ab c0       	rjmp	.+342    	;  0x3124
    2fce:	87 e2       	ldi	r24, 0x27	; 39
    2fd0:	98 e0       	ldi	r25, 0x08	; 8
    2fd2:	69 d9       	rcall	.-3374   	;  0x22a6
    2fd4:	84 e0       	ldi	r24, 0x04	; 4
    2fd6:	80 93 4e 01 	sts	0x014E, r24	;  0x80014e
    2fda:	0e 94 96 0a 	call	0x152c	;  0x152c
    2fde:	a2 c0       	rjmp	.+324    	;  0x3124
    2fe0:	88 23       	and	r24, r24
    2fe2:	e1 f0       	breq	.+56     	;  0x301c
    2fe4:	0e 94 a9 0a 	call	0x1552	;  0x1552
    2fe8:	88 23       	and	r24, r24
    2fea:	09 f4       	brne	.+2      	;  0x2fee
    2fec:	9b c0       	rjmp	.+310    	;  0x3124
    2fee:	82 e0       	ldi	r24, 0x02	; 2
    2ff0:	0e 94 c5 0a 	call	0x158a	;  0x158a
    2ff4:	0e 94 a6 05 	call	0xb4c	;  0xb4c
    2ff8:	10 92 4e 01 	sts	0x014E, r1	;  0x80014e
    2ffc:	10 92 4a 01 	sts	0x014A, r1	;  0x80014a
    3000:	10 92 4b 01 	sts	0x014B, r1	;  0x80014b
    3004:	10 92 4c 01 	sts	0x014C, r1	;  0x80014c
    3008:	10 92 4d 01 	sts	0x014D, r1	;  0x80014d
    300c:	81 e0       	ldi	r24, 0x01	; 1
    300e:	80 93 53 01 	sts	0x0153, r24	;  0x800153
    3012:	10 92 60 01 	sts	0x0160, r1	;  0x800160
    3016:	8c e3       	ldi	r24, 0x3C	; 60
    3018:	98 e0       	ldi	r25, 0x08	; 8
    301a:	fc c0       	rjmp	.+504    	;  0x3214
    301c:	0e 94 96 0a 	call	0x152c	;  0x152c
    3020:	80 91 4a 01 	lds	r24, 0x014A	;  0x80014a
    3024:	90 91 4b 01 	lds	r25, 0x014B	;  0x80014b
    3028:	a0 91 4c 01 	lds	r26, 0x014C	;  0x80014c
    302c:	b0 91 4d 01 	lds	r27, 0x014D	;  0x80014d
    3030:	ac 01       	movw	r20, r24
    3032:	bd 01       	movw	r22, r26
    3034:	4f 5f       	subi	r20, 0xFF	; 255
    3036:	5f 4f       	sbci	r21, 0xFF	; 255
    3038:	6f 4f       	sbci	r22, 0xFF	; 255
    303a:	7f 4f       	sbci	r23, 0xFF	; 255
    303c:	40 93 4a 01 	sts	0x014A, r20	;  0x80014a
    3040:	50 93 4b 01 	sts	0x014B, r21	;  0x80014b
    3044:	60 93 4c 01 	sts	0x014C, r22	;  0x80014c
    3048:	70 93 4d 01 	sts	0x014D, r23	;  0x80014d
    304c:	81 15       	cp	r24, r1
    304e:	90 4c       	sbci	r25, 0xC0	; 192
    3050:	a1 05       	cpc	r26, r1
    3052:	b1 05       	cpc	r27, r1
    3054:	08 f4       	brcc	.+2      	;  0x3058
    3056:	66 c0       	rjmp	.+204    	;  0x3124
    3058:	10 92 4a 01 	sts	0x014A, r1	;  0x80014a
    305c:	10 92 4b 01 	sts	0x014B, r1	;  0x80014b
    3060:	10 92 4c 01 	sts	0x014C, r1	;  0x80014c
    3064:	10 92 4d 01 	sts	0x014D, r1	;  0x80014d
    3068:	ce c0       	rjmp	.+412    	;  0x3206
    306a:	11 23       	and	r17, r17
    306c:	09 f4       	brne	.+2      	;  0x3070
    306e:	5a c0       	rjmp	.+180    	;  0x3124
    3070:	80 91 53 01 	lds	r24, 0x0153	;  0x800153
    3074:	81 11       	cpse	r24, r1
    3076:	56 c0       	rjmp	.+172    	;  0x3124
    3078:	80 91 c3 01 	lds	r24, 0x01C3	;  0x8001c3
    307c:	90 91 c4 01 	lds	r25, 0x01C4	;  0x8001c4
    3080:	0e 94 da 04 	call	0x9b4	;  0x9b4
    3084:	40 91 4f 01 	lds	r20, 0x014F	;  0x80014f
    3088:	50 91 50 01 	lds	r21, 0x0150	;  0x800150
    308c:	60 91 51 01 	lds	r22, 0x0151	;  0x800151
    3090:	70 91 52 01 	lds	r23, 0x0152	;  0x800152
    3094:	8a 01       	movw	r16, r20
    3096:	9b 01       	movw	r18, r22
    3098:	e2 e0       	ldi	r30, 0x02	; 2
    309a:	36 95       	lsr	r19
    309c:	27 95       	ror	r18
    309e:	17 95       	ror	r17
    30a0:	07 95       	ror	r16
    30a2:	ea 95       	dec	r30
    30a4:	d1 f7       	brne	.-12     	;  0x309a
    30a6:	40 1b       	sub	r20, r16
    30a8:	51 0b       	sbc	r21, r17
    30aa:	62 0b       	sbc	r22, r18
    30ac:	73 0b       	sbc	r23, r19
    30ae:	96 95       	lsr	r25
    30b0:	87 95       	ror	r24
    30b2:	96 95       	lsr	r25
    30b4:	87 95       	ror	r24
    30b6:	6a 01       	movw	r12, r20
    30b8:	7b 01       	movw	r14, r22
    30ba:	c8 0e       	add	r12, r24
    30bc:	d9 1e       	adc	r13, r25
    30be:	e1 1c       	adc	r14, r1
    30c0:	f1 1c       	adc	r15, r1
    30c2:	d7 01       	movw	r26, r14
    30c4:	c6 01       	movw	r24, r12
    30c6:	c0 92 4f 01 	sts	0x014F, r12	;  0x80014f
    30ca:	d0 92 50 01 	sts	0x0150, r13	;  0x800150
    30ce:	e0 92 51 01 	sts	0x0151, r14	;  0x800151
    30d2:	f0 92 52 01 	sts	0x0152, r15	;  0x800152
    30d6:	20 91 5f 01 	lds	r18, 0x015F	;  0x80015f
    30da:	31 e0       	ldi	r19, 0x01	; 1
    30dc:	32 0f       	add	r19, r18
    30de:	30 93 5f 01 	sts	0x015F, r19	;  0x80015f
    30e2:	20 34       	cpi	r18, 0x40	; 64
    30e4:	f8 f0       	brcs	.+62     	;  0x3124
    30e6:	10 92 5f 01 	sts	0x015F, r1	;  0x80015f
    30ea:	4a e0       	ldi	r20, 0x0A	; 10
    30ec:	8e 01       	movw	r16, r28
    30ee:	0f 5f       	subi	r16, 0xFF	; 255
    30f0:	1f 4f       	sbci	r17, 0xFF	; 255
    30f2:	b8 01       	movw	r22, r16
    30f4:	f8 d3       	rcall	.+2032   	;  0x38e6
    30f6:	85 e0       	ldi	r24, 0x05	; 5
    30f8:	0e 94 ce 0b 	call	0x179c	;  0x179c
    30fc:	68 e2       	ldi	r22, 0x28	; 40
    30fe:	77 e0       	ldi	r23, 0x07	; 7
    3100:	8c e3       	ldi	r24, 0x3C	; 60
    3102:	92 e0       	ldi	r25, 0x02	; 2
    3104:	d7 d3       	rcall	.+1966   	;  0x38b4
    3106:	f8 01       	movw	r30, r16
    3108:	01 90       	ld	r0, Z+
    310a:	00 20       	and	r0, r0
    310c:	e9 f7       	brne	.-6      	;  0x3108
    310e:	31 97       	sbiw	r30, 0x01	; 1
    3110:	af 01       	movw	r20, r30
    3112:	40 1b       	sub	r20, r16
    3114:	51 0b       	sbc	r21, r17
    3116:	b8 01       	movw	r22, r16
    3118:	82 e4       	ldi	r24, 0x42	; 66
    311a:	92 e0       	ldi	r25, 0x02	; 2
    311c:	db d3       	rcall	.+1974   	;  0x38d4
    311e:	85 e0       	ldi	r24, 0x05	; 5
    3120:	0e 94 15 0c 	call	0x182a	;  0x182a
    3124:	80 91 e3 02 	lds	r24, 0x02E3	;  0x8002e3
    3128:	80 ff       	sbrs	r24, 0
    312a:	2b c0       	rjmp	.+86     	;  0x3182
    312c:	80 91 61 01 	lds	r24, 0x0161	;  0x800161
    3130:	8f 5f       	subi	r24, 0xFF	; 255
    3132:	80 93 61 01 	sts	0x0161, r24	;  0x800161
    3136:	82 30       	cpi	r24, 0x02	; 2
    3138:	10 f0       	brcs	.+4      	;  0x313e
    313a:	10 92 61 01 	sts	0x0161, r1	;  0x800161
    313e:	80 91 61 01 	lds	r24, 0x0161	;  0x800161
    3142:	81 11       	cpse	r24, r1
    3144:	05 c0       	rjmp	.+10     	;  0x3150
    3146:	87 e0       	ldi	r24, 0x07	; 7
    3148:	80 93 c5 01 	sts	0x01C5, r24	;  0x8001c5
    314c:	88 e3       	ldi	r24, 0x38	; 56
    314e:	0d c0       	rjmp	.+26     	;  0x316a
    3150:	81 30       	cpi	r24, 0x01	; 1
    3152:	69 f4       	brne	.+26     	;  0x316e
    3154:	80 91 5e 01 	lds	r24, 0x015E	;  0x80015e
    3158:	81 50       	subi	r24, 0x01	; 1
    315a:	82 30       	cpi	r24, 0x02	; 2
    315c:	10 f4       	brcc	.+4      	;  0x3162
    315e:	87 e8       	ldi	r24, 0x87	; 135
    3160:	01 c0       	rjmp	.+2      	;  0x3164
    3162:	87 ec       	ldi	r24, 0xC7	; 199
    3164:	80 93 c5 01 	sts	0x01C5, r24	;  0x8001c5
    3168:	82 eb       	ldi	r24, 0xB2	; 178
    316a:	80 93 c6 01 	sts	0x01C6, r24	;  0x8001c6
    316e:	10 92 53 01 	sts	0x0153, r1	;  0x800153
    3172:	87 e0       	ldi	r24, 0x07	; 7
    3174:	0e 94 15 0c 	call	0x182a	;  0x182a
    3178:	80 91 e3 02 	lds	r24, 0x02E3	;  0x8002e3
    317c:	8e 7f       	andi	r24, 0xFE	; 254
    317e:	80 93 e3 02 	sts	0x02E3, r24	;  0x8002e3
    3182:	80 91 e3 02 	lds	r24, 0x02E3	;  0x8002e3
    3186:	81 ff       	sbrs	r24, 1
    3188:	47 c0       	rjmp	.+142    	;  0x3218
    318a:	80 91 61 01 	lds	r24, 0x0161	;  0x800161
    318e:	88 23       	and	r24, r24
    3190:	19 f0       	breq	.+6      	;  0x3198
    3192:	81 30       	cpi	r24, 0x01	; 1
    3194:	91 f0       	breq	.+36     	;  0x31ba
    3196:	2e c0       	rjmp	.+92     	;  0x31f4
    3198:	0e 94 f6 09 	call	0x13ec	;  0x13ec
    319c:	0e 94 cb 0b 	call	0x1796	;  0x1796
    31a0:	0e 94 c5 0b 	call	0x178a	;  0x178a
    31a4:	40 9a       	sbi	0x08, 0	; 8
    31a6:	29 98       	cbi	0x05, 1	; 5
    31a8:	0e 94 c7 05 	call	0xb8e	;  0xb8e
    31ac:	0e 94 a6 05 	call	0xb4c	;  0xb4c
    31b0:	10 92 60 01 	sts	0x0160, r1	;  0x800160
    31b4:	89 eb       	ldi	r24, 0xB9	; 185
    31b6:	91 e0       	ldi	r25, 0x01	; 1
    31b8:	0f c0       	rjmp	.+30     	;  0x31d8
    31ba:	90 91 5e 01 	lds	r25, 0x015E	;  0x80015e
    31be:	93 30       	cpi	r25, 0x03	; 3
    31c0:	11 f4       	brne	.+4      	;  0x31c6
    31c2:	63 e0       	ldi	r22, 0x03	; 3
    31c4:	03 c0       	rjmp	.+6      	;  0x31cc
    31c6:	94 30       	cpi	r25, 0x04	; 4
    31c8:	89 f4       	brne	.+34     	;  0x31ec
    31ca:	64 e0       	ldi	r22, 0x04	; 4
    31cc:	8b e9       	ldi	r24, 0x9B	; 155
    31ce:	91 e0       	ldi	r25, 0x01	; 1
    31d0:	0e 94 82 05 	call	0xb04	;  0xb04
    31d4:	8b e9       	ldi	r24, 0x9B	; 155
    31d6:	91 e0       	ldi	r25, 0x01	; 1
    31d8:	90 93 82 01 	sts	0x0182, r25	;  0x800182
    31dc:	80 93 81 01 	sts	0x0181, r24	;  0x800181
    31e0:	80 91 e3 02 	lds	r24, 0x02E3	;  0x8002e3
    31e4:	84 60       	ori	r24, 0x04	; 4
    31e6:	80 93 e3 02 	sts	0x02E3, r24	;  0x8002e3
    31ea:	04 c0       	rjmp	.+8      	;  0x31f4
    31ec:	80 93 60 01 	sts	0x0160, r24	;  0x800160
    31f0:	10 92 4e 01 	sts	0x014E, r1	;  0x80014e
    31f4:	80 91 e3 02 	lds	r24, 0x02E3	;  0x8002e3
    31f8:	8d 7f       	andi	r24, 0xFD	; 253
    31fa:	80 93 e3 02 	sts	0x02E3, r24	;  0x8002e3
    31fe:	0c c0       	rjmp	.+24     	;  0x3218
    3200:	0e 94 b2 0a 	call	0x1564	;  0x1564
    3204:	f0 cd       	rjmp	.-1056   	;  0x2de6
    3206:	81 e0       	ldi	r24, 0x01	; 1
    3208:	80 93 53 01 	sts	0x0153, r24	;  0x800153
    320c:	10 92 60 01 	sts	0x0160, r1	;  0x800160
    3210:	82 e1       	ldi	r24, 0x12	; 18
    3212:	98 e0       	ldi	r25, 0x08	; 8
    3214:	48 d8       	rcall	.-3952   	;  0x22a6
    3216:	86 cf       	rjmp	.-244    	;  0x3124
    3218:	25 96       	adiw	r28, 0x05	; 5
    321a:	ec e0       	ldi	r30, 0x0C	; 12
    321c:	07 c3       	rjmp	.+1550   	;  0x382c
    321e:	e2 ef       	ldi	r30, 0xF2	; 242
    3220:	f2 e0       	ldi	r31, 0x02	; 2
    3222:	82 e8       	ldi	r24, 0x82	; 130
    3224:	95 e0       	ldi	r25, 0x05	; 5
    3226:	91 83       	std	Z+1, r25	; 0x01
    3228:	80 83       	st	Z, r24
    322a:	8a ef       	ldi	r24, 0xFA	; 250
    322c:	94 e0       	ldi	r25, 0x04	; 4
    322e:	93 83       	std	Z+3, r25	; 0x03
    3230:	82 83       	std	Z+2, r24	; 0x02
    3232:	8a ee       	ldi	r24, 0xEA	; 234
    3234:	94 e0       	ldi	r25, 0x04	; 4
    3236:	95 83       	std	Z+5, r25	; 0x05
    3238:	84 83       	std	Z+4, r24	; 0x04
    323a:	8a e3       	ldi	r24, 0x3A	; 58
    323c:	95 e0       	ldi	r25, 0x05	; 5
    323e:	91 87       	std	Z+9, r25	; 0x09
    3240:	80 87       	std	Z+8, r24	; 0x08
    3242:	8a e4       	ldi	r24, 0x4A	; 74
    3244:	95 e0       	ldi	r25, 0x05	; 5
    3246:	93 87       	std	Z+11, r25	; 0x0b
    3248:	82 87       	std	Z+10, r24	; 0x0a
    324a:	8a e6       	ldi	r24, 0x6A	; 106
    324c:	95 e0       	ldi	r25, 0x05	; 5
    324e:	97 83       	std	Z+7, r25	; 0x07
    3250:	86 83       	std	Z+6, r24	; 0x06
    3252:	8a e5       	ldi	r24, 0x5A	; 90
    3254:	95 e0       	ldi	r25, 0x05	; 5
    3256:	95 87       	std	Z+13, r25	; 0x0d
    3258:	84 87       	std	Z+12, r24	; 0x0c
    325a:	8a e2       	ldi	r24, 0x2A	; 42
    325c:	95 e0       	ldi	r25, 0x05	; 5
    325e:	97 87       	std	Z+15, r25	; 0x0f
    3260:	86 87       	std	Z+14, r24	; 0x0e
    3262:	8a e1       	ldi	r24, 0x1A	; 26
    3264:	95 e0       	ldi	r25, 0x05	; 5
    3266:	91 8b       	std	Z+17, r25	; 0x11
    3268:	80 8b       	std	Z+16, r24	; 0x10
    326a:	8a e0       	ldi	r24, 0x0A	; 10
    326c:	95 e0       	ldi	r25, 0x05	; 5
    326e:	93 8b       	std	Z+19, r25	; 0x13
    3270:	82 8b       	std	Z+18, r24	; 0x12
    3272:	08 95       	ret
    3274:	a0 e1       	ldi	r26, 0x10	; 16
    3276:	b0 e0       	ldi	r27, 0x00	; 0
    3278:	ef e3       	ldi	r30, 0x3F	; 63
    327a:	f9 e1       	ldi	r31, 0x19	; 25
    327c:	c3 c2       	rjmp	.+1414   	;  0x3804
    327e:	bc 01       	movw	r22, r24
    3280:	ce 01       	movw	r24, r28
    3282:	01 96       	adiw	r24, 0x01	; 1
    3284:	17 d3       	rcall	.+1582   	;  0x38b4
    3286:	8e 01       	movw	r16, r28
    3288:	0f 5f       	subi	r16, 0xFF	; 255
    328a:	1f 4f       	sbci	r17, 0xFF	; 255
    328c:	f8 01       	movw	r30, r16
    328e:	81 91       	ld	r24, Z+
    3290:	8f 01       	movw	r16, r30
    3292:	88 23       	and	r24, r24
    3294:	21 f0       	breq	.+8      	;  0x329e
    3296:	60 e0       	ldi	r22, 0x00	; 0
    3298:	0e 94 9c 06 	call	0xd38	;  0xd38
    329c:	f7 cf       	rjmp	.-18     	;  0x328c
    329e:	60 96       	adiw	r28, 0x10	; 16
    32a0:	e4 e0       	ldi	r30, 0x04	; 4
    32a2:	cc c2       	rjmp	.+1432   	;  0x383c
    32a4:	0f 93       	push	r16
    32a6:	1f 93       	push	r17
    32a8:	cf 93       	push	r28
    32aa:	df 93       	push	r29
    32ac:	60 e0       	ldi	r22, 0x00	; 0
    32ae:	80 e0       	ldi	r24, 0x00	; 0
    32b0:	0e 94 cd 06 	call	0xd9a	;  0xd9a
    32b4:	c0 e0       	ldi	r28, 0x00	; 0
    32b6:	d0 e0       	ldi	r29, 0x00	; 0
    32b8:	10 e0       	ldi	r17, 0x00	; 0
    32ba:	c1 15       	cp	r28, r1
    32bc:	22 e0       	ldi	r18, 0x02	; 2
    32be:	d2 07       	cpc	r29, r18
    32c0:	b1 f0       	breq	.+44     	;  0x32ee
    32c2:	ce 01       	movw	r24, r28
    32c4:	8f 73       	andi	r24, 0x3F	; 63
    32c6:	99 27       	eor	r25, r25
    32c8:	89 2b       	or	r24, r25
    32ca:	39 f4       	brne	.+14     	;  0x32da
    32cc:	01 e0       	ldi	r16, 0x01	; 1
    32ce:	01 0f       	add	r16, r17
    32d0:	60 e0       	ldi	r22, 0x00	; 0
    32d2:	81 2f       	mov	r24, r17
    32d4:	0e 94 cd 06 	call	0xd9a	;  0xd9a
    32d8:	10 2f       	mov	r17, r16
    32da:	0e 94 98 06 	call	0xd30	;  0xd30
    32de:	ce 01       	movw	r24, r28
    32e0:	6b d3       	rcall	.+1750   	;  0x39b8
    32e2:	0e 94 84 06 	call	0xd08	;  0xd08
    32e6:	0e 94 cb 06 	call	0xd96	;  0xd96
    32ea:	21 96       	adiw	r28, 0x01	; 1
    32ec:	e6 cf       	rjmp	.-52     	;  0x32ba
    32ee:	6c e3       	ldi	r22, 0x3C	; 60
    32f0:	82 e0       	ldi	r24, 0x02	; 2
    32f2:	0e 94 cd 06 	call	0xd9a	;  0xd9a
    32f6:	84 ea       	ldi	r24, 0xA4	; 164
    32f8:	98 e0       	ldi	r25, 0x08	; 8
    32fa:	bc df       	rcall	.-136    	;  0x3274
    32fc:	6c e3       	ldi	r22, 0x3C	; 60
    32fe:	83 e0       	ldi	r24, 0x03	; 3
    3300:	0e 94 cd 06 	call	0xd9a	;  0xd9a
    3304:	89 e9       	ldi	r24, 0x99	; 153
    3306:	98 e0       	ldi	r25, 0x08	; 8
    3308:	b5 df       	rcall	.-150    	;  0x3274
    330a:	6c e3       	ldi	r22, 0x3C	; 60
    330c:	84 e0       	ldi	r24, 0x04	; 4
    330e:	0e 94 cd 06 	call	0xd9a	;  0xd9a
    3312:	83 e9       	ldi	r24, 0x93	; 147
    3314:	98 e0       	ldi	r25, 0x08	; 8
    3316:	ae df       	rcall	.-164    	;  0x3274
    3318:	8f ef       	ldi	r24, 0xFF	; 255
    331a:	9f ef       	ldi	r25, 0xFF	; 255
    331c:	29 e5       	ldi	r18, 0x59	; 89
    331e:	81 50       	subi	r24, 0x01	; 1
    3320:	90 40       	sbci	r25, 0x00	; 0
    3322:	20 40       	sbci	r18, 0x00	; 0
    3324:	e1 f7       	brne	.-8      	;  0x331e
    3326:	00 c0       	rjmp	.+0      	;  0x3328
    3328:	00 00       	nop
    332a:	df 91       	pop	r29
    332c:	cf 91       	pop	r28
    332e:	1f 91       	pop	r17
    3330:	0f 91       	pop	r16
    3332:	08 95       	ret
    3334:	1f 92       	push	r1
    3336:	0f 92       	push	r0
    3338:	0f b6       	in	r0, 0x3f	; 63
    333a:	0f 92       	push	r0
    333c:	11 24       	eor	r1, r1
    333e:	0f 90       	pop	r0
    3340:	0f be       	out	0x3f, r0	; 63
    3342:	0f 90       	pop	r0
    3344:	1f 90       	pop	r1
    3346:	18 95       	reti
    3348:	a8 d8       	rcall	.-3760   	;  0x249a
    334a:	ac df       	rcall	.-168    	;  0x32a4
    334c:	68 df       	rcall	.-304    	;  0x321e
    334e:	2f ed       	ldi	r18, 0xDF	; 223
    3350:	30 e1       	ldi	r19, 0x10	; 16
    3352:	42 ef       	ldi	r20, 0xF2	; 242
    3354:	52 e0       	ldi	r21, 0x02	; 2
    3356:	60 e0       	ldi	r22, 0x00	; 0
    3358:	89 eb       	ldi	r24, 0xB9	; 185
    335a:	91 e0       	ldi	r25, 0x01	; 1
    335c:	0e 94 7a 05 	call	0xaf4	;  0xaf4
    3360:	27 eb       	ldi	r18, 0xB7	; 183
    3362:	35 e1       	ldi	r19, 0x15	; 21
    3364:	4a ef       	ldi	r20, 0xFA	; 250
    3366:	52 e0       	ldi	r21, 0x02	; 2
    3368:	62 e0       	ldi	r22, 0x02	; 2
    336a:	83 eb       	ldi	r24, 0xB3	; 179
    336c:	91 e0       	ldi	r25, 0x01	; 1
    336e:	0e 94 7a 05 	call	0xaf4	;  0xaf4
    3372:	27 eb       	ldi	r18, 0xB7	; 183
    3374:	35 e1       	ldi	r19, 0x15	; 21
    3376:	4c ef       	ldi	r20, 0xFC	; 252
    3378:	52 e0       	ldi	r21, 0x02	; 2
    337a:	61 e0       	ldi	r22, 0x01	; 1
    337c:	8d ea       	ldi	r24, 0xAD	; 173
    337e:	91 e0       	ldi	r25, 0x01	; 1
    3380:	0e 94 7a 05 	call	0xaf4	;  0xaf4
    3384:	27 eb       	ldi	r18, 0xB7	; 183
    3386:	35 e1       	ldi	r19, 0x15	; 21
    3388:	44 ef       	ldi	r20, 0xF4	; 244
    338a:	52 e0       	ldi	r21, 0x02	; 2
    338c:	63 e0       	ldi	r22, 0x03	; 3
    338e:	87 ea       	ldi	r24, 0xA7	; 167
    3390:	91 e0       	ldi	r25, 0x01	; 1
    3392:	0e 94 7a 05 	call	0xaf4	;  0xaf4
    3396:	27 eb       	ldi	r18, 0xB7	; 183
    3398:	35 e1       	ldi	r19, 0x15	; 21
    339a:	46 ef       	ldi	r20, 0xF6	; 246
    339c:	52 e0       	ldi	r21, 0x02	; 2
    339e:	64 e0       	ldi	r22, 0x04	; 4
    33a0:	81 ea       	ldi	r24, 0xA1	; 161
    33a2:	91 e0       	ldi	r25, 0x01	; 1
    33a4:	0e 94 7a 05 	call	0xaf4	;  0xaf4
    33a8:	24 e0       	ldi	r18, 0x04	; 4
    33aa:	33 e1       	ldi	r19, 0x13	; 19
    33ac:	48 ef       	ldi	r20, 0xF8	; 248
    33ae:	52 e0       	ldi	r21, 0x02	; 2
    33b0:	63 e0       	ldi	r22, 0x03	; 3
    33b2:	8b e9       	ldi	r24, 0x9B	; 155
    33b4:	91 e0       	ldi	r25, 0x01	; 1
    33b6:	0e 94 7a 05 	call	0xaf4	;  0xaf4
    33ba:	29 e8       	ldi	r18, 0x89	; 137
    33bc:	3f e0       	ldi	r19, 0x0F	; 15
    33be:	4e ef       	ldi	r20, 0xFE	; 254
    33c0:	52 e0       	ldi	r21, 0x02	; 2
    33c2:	63 e0       	ldi	r22, 0x03	; 3
    33c4:	85 e9       	ldi	r24, 0x95	; 149
    33c6:	91 e0       	ldi	r25, 0x01	; 1
    33c8:	0e 94 7a 05 	call	0xaf4	;  0xaf4
    33cc:	24 eb       	ldi	r18, 0xB4	; 180
    33ce:	31 e1       	ldi	r19, 0x11	; 17
    33d0:	40 e0       	ldi	r20, 0x00	; 0
    33d2:	53 e0       	ldi	r21, 0x03	; 3
    33d4:	60 e0       	ldi	r22, 0x00	; 0
    33d6:	8f e8       	ldi	r24, 0x8F	; 143
    33d8:	91 e0       	ldi	r25, 0x01	; 1
    33da:	0e 94 7a 05 	call	0xaf4	;  0xaf4
    33de:	2b eb       	ldi	r18, 0xBB	; 187
    33e0:	3e e0       	ldi	r19, 0x0E	; 14
    33e2:	42 e0       	ldi	r20, 0x02	; 2
    33e4:	53 e0       	ldi	r21, 0x03	; 3
    33e6:	60 e0       	ldi	r22, 0x00	; 0
    33e8:	89 e8       	ldi	r24, 0x89	; 137
    33ea:	91 e0       	ldi	r25, 0x01	; 1
    33ec:	0e 94 7a 05 	call	0xaf4	;  0xaf4
    33f0:	2b e6       	ldi	r18, 0x6B	; 107
    33f2:	3d e0       	ldi	r19, 0x0D	; 13
    33f4:	44 e0       	ldi	r20, 0x04	; 4
    33f6:	53 e0       	ldi	r21, 0x03	; 3
    33f8:	60 e0       	ldi	r22, 0x00	; 0
    33fa:	83 e8       	ldi	r24, 0x83	; 131
    33fc:	91 e0       	ldi	r25, 0x01	; 1
    33fe:	0e 94 7a 05 	call	0xaf4	;  0xaf4
    3402:	89 eb       	ldi	r24, 0xB9	; 185
    3404:	91 e0       	ldi	r25, 0x01	; 1
    3406:	90 93 82 01 	sts	0x0182, r25	;  0x800182
    340a:	80 93 81 01 	sts	0x0181, r24	;  0x800181
    340e:	80 91 e3 02 	lds	r24, 0x02E3	;  0x8002e3
    3412:	84 60       	ori	r24, 0x04	; 4
    3414:	80 93 e3 02 	sts	0x02E3, r24	;  0x8002e3
    3418:	88 e0       	ldi	r24, 0x08	; 8
    341a:	0e 94 59 05 	call	0xab2	;  0xab2
    341e:	88 23       	and	r24, r24
    3420:	29 f0       	breq	.+10     	;  0x342c
    3422:	80 91 e3 02 	lds	r24, 0x02E3	;  0x8002e3
    3426:	81 60       	ori	r24, 0x01	; 1
    3428:	80 93 e3 02 	sts	0x02E3, r24	;  0x8002e3
    342c:	88 e0       	ldi	r24, 0x08	; 8
    342e:	0e 94 60 05 	call	0xac0	;  0xac0
    3432:	88 23       	and	r24, r24
    3434:	41 f0       	breq	.+16     	;  0x3446
    3436:	81 e0       	ldi	r24, 0x01	; 1
    3438:	0e 94 c5 0a 	call	0x158a	;  0x158a
    343c:	80 91 e3 02 	lds	r24, 0x02E3	;  0x8002e3
    3440:	82 60       	ori	r24, 0x02	; 2
    3442:	80 93 e3 02 	sts	0x02E3, r24	;  0x8002e3
    3446:	80 91 e3 02 	lds	r24, 0x02E3	;  0x8002e3
    344a:	80 fd       	sbrc	r24, 0
    344c:	03 c0       	rjmp	.+6      	;  0x3454
    344e:	80 91 e3 02 	lds	r24, 0x02E3	;  0x8002e3
    3452:	81 fd       	sbrc	r24, 1
    3454:	0e 94 87 0a 	call	0x150e	;  0x150e
    3458:	80 91 81 01 	lds	r24, 0x0181	;  0x800181
    345c:	90 91 82 01 	lds	r25, 0x0182	;  0x800182
    3460:	dc 01       	movw	r26, r24
    3462:	ed 91       	ld	r30, X+
    3464:	fc 91       	ld	r31, X
    3466:	09 95       	icall
    3468:	18 d8       	rcall	.-4048   	;  0x249a
    346a:	d6 cf       	rjmp	.-84     	;  0x3418
    346c:	50 58       	subi	r21, 0x80	; 128
    346e:	bb 27       	eor	r27, r27
    3470:	aa 27       	eor	r26, r26
    3472:	0e d0       	rcall	.+28     	;  0x3490
    3474:	e0 c0       	rjmp	.+448    	;  0x3636
    3476:	d1 d0       	rcall	.+418    	;  0x361a
    3478:	30 f0       	brcs	.+12     	;  0x3486
    347a:	d6 d0       	rcall	.+428    	;  0x3628
    347c:	20 f0       	brcs	.+8      	;  0x3486
    347e:	31 f4       	brne	.+12     	;  0x348c
    3480:	9f 3f       	cpi	r25, 0xFF	; 255
    3482:	11 f4       	brne	.+4      	;  0x3488
    3484:	1e f4       	brtc	.+6      	;  0x348c
    3486:	c6 c0       	rjmp	.+396    	;  0x3614
    3488:	0e f4       	brtc	.+2      	;  0x348c
    348a:	e0 95       	com	r30
    348c:	e7 fb       	bst	r30, 7
    348e:	bc c0       	rjmp	.+376    	;  0x3608
    3490:	e9 2f       	mov	r30, r25
    3492:	e2 d0       	rcall	.+452    	;  0x3658
    3494:	80 f3       	brcs	.-32     	;  0x3476
    3496:	ba 17       	cp	r27, r26
    3498:	62 07       	cpc	r22, r18
    349a:	73 07       	cpc	r23, r19
    349c:	84 07       	cpc	r24, r20
    349e:	95 07       	cpc	r25, r21
    34a0:	18 f0       	brcs	.+6      	;  0x34a8
    34a2:	71 f4       	brne	.+28     	;  0x34c0
    34a4:	9e f5       	brtc	.+102    	;  0x350c
    34a6:	fa c0       	rjmp	.+500    	;  0x369c
    34a8:	0e f4       	brtc	.+2      	;  0x34ac
    34aa:	e0 95       	com	r30
    34ac:	0b 2e       	mov	r0, r27
    34ae:	ba 2f       	mov	r27, r26
    34b0:	a0 2d       	mov	r26, r0
    34b2:	0b 01       	movw	r0, r22
    34b4:	b9 01       	movw	r22, r18
    34b6:	90 01       	movw	r18, r0
    34b8:	0c 01       	movw	r0, r24
    34ba:	ca 01       	movw	r24, r20
    34bc:	a0 01       	movw	r20, r0
    34be:	11 24       	eor	r1, r1
    34c0:	ff 27       	eor	r31, r31
    34c2:	59 1b       	sub	r21, r25
    34c4:	99 f0       	breq	.+38     	;  0x34ec
    34c6:	59 3f       	cpi	r21, 0xF9	; 249
    34c8:	50 f4       	brcc	.+20     	;  0x34de
    34ca:	50 3e       	cpi	r21, 0xE0	; 224
    34cc:	68 f1       	brcs	.+90     	;  0x3528
    34ce:	1a 16       	cp	r1, r26
    34d0:	f0 40       	sbci	r31, 0x00	; 0
    34d2:	a2 2f       	mov	r26, r18
    34d4:	23 2f       	mov	r18, r19
    34d6:	34 2f       	mov	r19, r20
    34d8:	44 27       	eor	r20, r20
    34da:	58 5f       	subi	r21, 0xF8	; 248
    34dc:	f3 cf       	rjmp	.-26     	;  0x34c4
    34de:	46 95       	lsr	r20
    34e0:	37 95       	ror	r19
    34e2:	27 95       	ror	r18
    34e4:	a7 95       	ror	r26
    34e6:	f0 40       	sbci	r31, 0x00	; 0
    34e8:	53 95       	inc	r21
    34ea:	c9 f7       	brne	.-14     	;  0x34de
    34ec:	7e f4       	brtc	.+30     	;  0x350c
    34ee:	1f 16       	cp	r1, r31
    34f0:	ba 0b       	sbc	r27, r26
    34f2:	62 0b       	sbc	r22, r18
    34f4:	73 0b       	sbc	r23, r19
    34f6:	84 0b       	sbc	r24, r20
    34f8:	ba f0       	brmi	.+46     	;  0x3528
    34fa:	91 50       	subi	r25, 0x01	; 1
    34fc:	a1 f0       	breq	.+40     	;  0x3526
    34fe:	ff 0f       	add	r31, r31
    3500:	bb 1f       	adc	r27, r27
    3502:	66 1f       	adc	r22, r22
    3504:	77 1f       	adc	r23, r23
    3506:	88 1f       	adc	r24, r24
    3508:	c2 f7       	brpl	.-16     	;  0x34fa
    350a:	0e c0       	rjmp	.+28     	;  0x3528
    350c:	ba 0f       	add	r27, r26
    350e:	62 1f       	adc	r22, r18
    3510:	73 1f       	adc	r23, r19
    3512:	84 1f       	adc	r24, r20
    3514:	48 f4       	brcc	.+18     	;  0x3528
    3516:	87 95       	ror	r24
    3518:	77 95       	ror	r23
    351a:	67 95       	ror	r22
    351c:	b7 95       	ror	r27
    351e:	f7 95       	ror	r31
    3520:	9e 3f       	cpi	r25, 0xFE	; 254
    3522:	08 f0       	brcs	.+2      	;  0x3526
    3524:	b3 cf       	rjmp	.-154    	;  0x348c
    3526:	93 95       	inc	r25
    3528:	88 0f       	add	r24, r24
    352a:	08 f0       	brcs	.+2      	;  0x352e
    352c:	99 27       	eor	r25, r25
    352e:	ee 0f       	add	r30, r30
    3530:	97 95       	ror	r25
    3532:	87 95       	ror	r24
    3534:	08 95       	ret
    3536:	98 d0       	rcall	.+304    	;  0x3668
    3538:	88 f0       	brcs	.+34     	;  0x355c
    353a:	9f 57       	subi	r25, 0x7F	; 127
    353c:	90 f0       	brcs	.+36     	;  0x3562
    353e:	b9 2f       	mov	r27, r25
    3540:	99 27       	eor	r25, r25
    3542:	b7 51       	subi	r27, 0x17	; 23
    3544:	a0 f0       	brcs	.+40     	;  0x356e
    3546:	d1 f0       	breq	.+52     	;  0x357c
    3548:	66 0f       	add	r22, r22
    354a:	77 1f       	adc	r23, r23
    354c:	88 1f       	adc	r24, r24
    354e:	99 1f       	adc	r25, r25
    3550:	1a f0       	brmi	.+6      	;  0x3558
    3552:	ba 95       	dec	r27
    3554:	c9 f7       	brne	.-14     	;  0x3548
    3556:	12 c0       	rjmp	.+36     	;  0x357c
    3558:	b1 30       	cpi	r27, 0x01	; 1
    355a:	81 f0       	breq	.+32     	;  0x357c
    355c:	9f d0       	rcall	.+318    	;  0x369c
    355e:	b1 e0       	ldi	r27, 0x01	; 1
    3560:	08 95       	ret
    3562:	9c c0       	rjmp	.+312    	;  0x369c
    3564:	67 2f       	mov	r22, r23
    3566:	78 2f       	mov	r23, r24
    3568:	88 27       	eor	r24, r24
    356a:	b8 5f       	subi	r27, 0xF8	; 248
    356c:	39 f0       	breq	.+14     	;  0x357c
    356e:	b9 3f       	cpi	r27, 0xF9	; 249
    3570:	cc f3       	brlt	.-14     	;  0x3564
    3572:	86 95       	lsr	r24
    3574:	77 95       	ror	r23
    3576:	67 95       	ror	r22
    3578:	b3 95       	inc	r27
    357a:	d9 f7       	brne	.-10     	;  0x3572
    357c:	3e f4       	brtc	.+14     	;  0x358c
    357e:	90 95       	com	r25
    3580:	80 95       	com	r24
    3582:	70 95       	com	r23
    3584:	61 95       	neg	r22
    3586:	7f 4f       	sbci	r23, 0xFF	; 255
    3588:	8f 4f       	sbci	r24, 0xFF	; 255
    358a:	9f 4f       	sbci	r25, 0xFF	; 255
    358c:	08 95       	ret
    358e:	e8 94       	clt
    3590:	09 c0       	rjmp	.+18     	;  0x35a4
    3592:	97 fb       	bst	r25, 7
    3594:	3e f4       	brtc	.+14     	;  0x35a4
    3596:	90 95       	com	r25
    3598:	80 95       	com	r24
    359a:	70 95       	com	r23
    359c:	61 95       	neg	r22
    359e:	7f 4f       	sbci	r23, 0xFF	; 255
    35a0:	8f 4f       	sbci	r24, 0xFF	; 255
    35a2:	9f 4f       	sbci	r25, 0xFF	; 255
    35a4:	99 23       	and	r25, r25
    35a6:	a9 f0       	breq	.+42     	;  0x35d2
    35a8:	f9 2f       	mov	r31, r25
    35aa:	96 e9       	ldi	r25, 0x96	; 150
    35ac:	bb 27       	eor	r27, r27
    35ae:	93 95       	inc	r25
    35b0:	f6 95       	lsr	r31
    35b2:	87 95       	ror	r24
    35b4:	77 95       	ror	r23
    35b6:	67 95       	ror	r22
    35b8:	b7 95       	ror	r27
    35ba:	f1 11       	cpse	r31, r1
    35bc:	f8 cf       	rjmp	.-16     	;  0x35ae
    35be:	fa f4       	brpl	.+62     	;  0x35fe
    35c0:	bb 0f       	add	r27, r27
    35c2:	11 f4       	brne	.+4      	;  0x35c8
    35c4:	60 ff       	sbrs	r22, 0
    35c6:	1b c0       	rjmp	.+54     	;  0x35fe
    35c8:	6f 5f       	subi	r22, 0xFF	; 255
    35ca:	7f 4f       	sbci	r23, 0xFF	; 255
    35cc:	8f 4f       	sbci	r24, 0xFF	; 255
    35ce:	9f 4f       	sbci	r25, 0xFF	; 255
    35d0:	16 c0       	rjmp	.+44     	;  0x35fe
    35d2:	88 23       	and	r24, r24
    35d4:	11 f0       	breq	.+4      	;  0x35da
    35d6:	96 e9       	ldi	r25, 0x96	; 150
    35d8:	11 c0       	rjmp	.+34     	;  0x35fc
    35da:	77 23       	and	r23, r23
    35dc:	21 f0       	breq	.+8      	;  0x35e6
    35de:	9e e8       	ldi	r25, 0x8E	; 142
    35e0:	87 2f       	mov	r24, r23
    35e2:	76 2f       	mov	r23, r22
    35e4:	05 c0       	rjmp	.+10     	;  0x35f0
    35e6:	66 23       	and	r22, r22
    35e8:	71 f0       	breq	.+28     	;  0x3606
    35ea:	96 e8       	ldi	r25, 0x86	; 134
    35ec:	86 2f       	mov	r24, r22
    35ee:	70 e0       	ldi	r23, 0x00	; 0
    35f0:	60 e0       	ldi	r22, 0x00	; 0
    35f2:	2a f0       	brmi	.+10     	;  0x35fe
    35f4:	9a 95       	dec	r25
    35f6:	66 0f       	add	r22, r22
    35f8:	77 1f       	adc	r23, r23
    35fa:	88 1f       	adc	r24, r24
    35fc:	da f7       	brpl	.-10     	;  0x35f4
    35fe:	88 0f       	add	r24, r24
    3600:	96 95       	lsr	r25
    3602:	87 95       	ror	r24
    3604:	97 f9       	bld	r25, 7
    3606:	08 95       	ret
    3608:	97 f9       	bld	r25, 7
    360a:	9f 67       	ori	r25, 0x7F	; 127
    360c:	80 e8       	ldi	r24, 0x80	; 128
    360e:	70 e0       	ldi	r23, 0x00	; 0
    3610:	60 e0       	ldi	r22, 0x00	; 0
    3612:	08 95       	ret
    3614:	9f ef       	ldi	r25, 0xFF	; 255
    3616:	80 ec       	ldi	r24, 0xC0	; 192
    3618:	08 95       	ret
    361a:	00 24       	eor	r0, r0
    361c:	0a 94       	dec	r0
    361e:	16 16       	cp	r1, r22
    3620:	17 06       	cpc	r1, r23
    3622:	18 06       	cpc	r1, r24
    3624:	09 06       	cpc	r0, r25
    3626:	08 95       	ret
    3628:	00 24       	eor	r0, r0
    362a:	0a 94       	dec	r0
    362c:	12 16       	cp	r1, r18
    362e:	13 06       	cpc	r1, r19
    3630:	14 06       	cpc	r1, r20
    3632:	05 06       	cpc	r0, r21
    3634:	08 95       	ret
    3636:	09 2e       	mov	r0, r25
    3638:	03 94       	inc	r0
    363a:	00 0c       	add	r0, r0
    363c:	11 f4       	brne	.+4      	;  0x3642
    363e:	88 23       	and	r24, r24
    3640:	52 f0       	brmi	.+20     	;  0x3656
    3642:	bb 0f       	add	r27, r27
    3644:	40 f4       	brcc	.+16     	;  0x3656
    3646:	bf 2b       	or	r27, r31
    3648:	11 f4       	brne	.+4      	;  0x364e
    364a:	60 ff       	sbrs	r22, 0
    364c:	04 c0       	rjmp	.+8      	;  0x3656
    364e:	6f 5f       	subi	r22, 0xFF	; 255
    3650:	7f 4f       	sbci	r23, 0xFF	; 255
    3652:	8f 4f       	sbci	r24, 0xFF	; 255
    3654:	9f 4f       	sbci	r25, 0xFF	; 255
    3656:	08 95       	ret
    3658:	57 fd       	sbrc	r21, 7
    365a:	90 58       	subi	r25, 0x80	; 128
    365c:	44 0f       	add	r20, r20
    365e:	55 1f       	adc	r21, r21
    3660:	59 f0       	breq	.+22     	;  0x3678
    3662:	5f 3f       	cpi	r21, 0xFF	; 255
    3664:	71 f0       	breq	.+28     	;  0x3682
    3666:	47 95       	ror	r20
    3668:	88 0f       	add	r24, r24
    366a:	97 fb       	bst	r25, 7
    366c:	99 1f       	adc	r25, r25
    366e:	61 f0       	breq	.+24     	;  0x3688
    3670:	9f 3f       	cpi	r25, 0xFF	; 255
    3672:	79 f0       	breq	.+30     	;  0x3692
    3674:	87 95       	ror	r24
    3676:	08 95       	ret
    3678:	12 16       	cp	r1, r18
    367a:	13 06       	cpc	r1, r19
    367c:	14 06       	cpc	r1, r20
    367e:	55 1f       	adc	r21, r21
    3680:	f2 cf       	rjmp	.-28     	;  0x3666
    3682:	46 95       	lsr	r20
    3684:	f1 df       	rcall	.-30     	;  0x3668
    3686:	08 c0       	rjmp	.+16     	;  0x3698
    3688:	16 16       	cp	r1, r22
    368a:	17 06       	cpc	r1, r23
    368c:	18 06       	cpc	r1, r24
    368e:	99 1f       	adc	r25, r25
    3690:	f1 cf       	rjmp	.-30     	;  0x3674
    3692:	86 95       	lsr	r24
    3694:	71 05       	cpc	r23, r1
    3696:	61 05       	cpc	r22, r1
    3698:	08 94       	sec
    369a:	08 95       	ret
    369c:	e8 94       	clt
    369e:	bb 27       	eor	r27, r27
    36a0:	66 27       	eor	r22, r22
    36a2:	77 27       	eor	r23, r23
    36a4:	cb 01       	movw	r24, r22
    36a6:	97 f9       	bld	r25, 7
    36a8:	08 95       	ret
    36aa:	0b d0       	rcall	.+22     	;  0x36c2
    36ac:	c4 cf       	rjmp	.-120    	;  0x3636
    36ae:	b5 df       	rcall	.-150    	;  0x361a
    36b0:	28 f0       	brcs	.+10     	;  0x36bc
    36b2:	ba df       	rcall	.-140    	;  0x3628
    36b4:	18 f0       	brcs	.+6      	;  0x36bc
    36b6:	95 23       	and	r25, r21
    36b8:	09 f0       	breq	.+2      	;  0x36bc
    36ba:	a6 cf       	rjmp	.-180    	;  0x3608
    36bc:	ab cf       	rjmp	.-170    	;  0x3614
    36be:	11 24       	eor	r1, r1
    36c0:	ee cf       	rjmp	.-36     	;  0x369e
    36c2:	ca df       	rcall	.-108    	;  0x3658
    36c4:	a0 f3       	brcs	.-24     	;  0x36ae
    36c6:	95 9f       	mul	r25, r21
    36c8:	d1 f3       	breq	.-12     	;  0x36be
    36ca:	95 0f       	add	r25, r21
    36cc:	50 e0       	ldi	r21, 0x00	; 0
    36ce:	55 1f       	adc	r21, r21
    36d0:	62 9f       	mul	r22, r18
    36d2:	f0 01       	movw	r30, r0
    36d4:	72 9f       	mul	r23, r18
    36d6:	bb 27       	eor	r27, r27
    36d8:	f0 0d       	add	r31, r0
    36da:	b1 1d       	adc	r27, r1
    36dc:	63 9f       	mul	r22, r19
    36de:	aa 27       	eor	r26, r26
    36e0:	f0 0d       	add	r31, r0
    36e2:	b1 1d       	adc	r27, r1
    36e4:	aa 1f       	adc	r26, r26
    36e6:	64 9f       	mul	r22, r20
    36e8:	66 27       	eor	r22, r22
    36ea:	b0 0d       	add	r27, r0
    36ec:	a1 1d       	adc	r26, r1
    36ee:	66 1f       	adc	r22, r22
    36f0:	82 9f       	mul	r24, r18
    36f2:	22 27       	eor	r18, r18
    36f4:	b0 0d       	add	r27, r0
    36f6:	a1 1d       	adc	r26, r1
    36f8:	62 1f       	adc	r22, r18
    36fa:	73 9f       	mul	r23, r19
    36fc:	b0 0d       	add	r27, r0
    36fe:	a1 1d       	adc	r26, r1
    3700:	62 1f       	adc	r22, r18
    3702:	83 9f       	mul	r24, r19
    3704:	a0 0d       	add	r26, r0
    3706:	61 1d       	adc	r22, r1
    3708:	22 1f       	adc	r18, r18
    370a:	74 9f       	mul	r23, r20
    370c:	33 27       	eor	r19, r19
    370e:	a0 0d       	add	r26, r0
    3710:	61 1d       	adc	r22, r1
    3712:	23 1f       	adc	r18, r19
    3714:	84 9f       	mul	r24, r20
    3716:	60 0d       	add	r22, r0
    3718:	21 1d       	adc	r18, r1
    371a:	82 2f       	mov	r24, r18
    371c:	76 2f       	mov	r23, r22
    371e:	6a 2f       	mov	r22, r26
    3720:	11 24       	eor	r1, r1
    3722:	9f 57       	subi	r25, 0x7F	; 127
    3724:	50 40       	sbci	r21, 0x00	; 0
    3726:	8a f0       	brmi	.+34     	;  0x374a
    3728:	e1 f0       	breq	.+56     	;  0x3762
    372a:	88 23       	and	r24, r24
    372c:	4a f0       	brmi	.+18     	;  0x3740
    372e:	ee 0f       	add	r30, r30
    3730:	ff 1f       	adc	r31, r31
    3732:	bb 1f       	adc	r27, r27
    3734:	66 1f       	adc	r22, r22
    3736:	77 1f       	adc	r23, r23
    3738:	88 1f       	adc	r24, r24
    373a:	91 50       	subi	r25, 0x01	; 1
    373c:	50 40       	sbci	r21, 0x00	; 0
    373e:	a9 f7       	brne	.-22     	;  0x372a
    3740:	9e 3f       	cpi	r25, 0xFE	; 254
    3742:	51 05       	cpc	r21, r1
    3744:	70 f0       	brcs	.+28     	;  0x3762
    3746:	60 cf       	rjmp	.-320    	;  0x3608
    3748:	aa cf       	rjmp	.-172    	;  0x369e
    374a:	5f 3f       	cpi	r21, 0xFF	; 255
    374c:	ec f3       	brlt	.-6      	;  0x3748
    374e:	98 3e       	cpi	r25, 0xE8	; 232
    3750:	dc f3       	brlt	.-10     	;  0x3748
    3752:	86 95       	lsr	r24
    3754:	77 95       	ror	r23
    3756:	67 95       	ror	r22
    3758:	b7 95       	ror	r27
    375a:	f7 95       	ror	r31
    375c:	e7 95       	ror	r30
    375e:	9f 5f       	subi	r25, 0xFF	; 255
    3760:	c1 f7       	brne	.-16     	;  0x3752
    3762:	fe 2b       	or	r31, r30
    3764:	88 0f       	add	r24, r24
    3766:	91 1d       	adc	r25, r1
    3768:	96 95       	lsr	r25
    376a:	87 95       	ror	r24
    376c:	97 f9       	bld	r25, 7
    376e:	08 95       	ret
    3770:	aa 1b       	sub	r26, r26
    3772:	bb 1b       	sub	r27, r27
    3774:	51 e1       	ldi	r21, 0x11	; 17
    3776:	07 c0       	rjmp	.+14     	;  0x3786
    3778:	aa 1f       	adc	r26, r26
    377a:	bb 1f       	adc	r27, r27
    377c:	a6 17       	cp	r26, r22
    377e:	b7 07       	cpc	r27, r23
    3780:	10 f0       	brcs	.+4      	;  0x3786
    3782:	a6 1b       	sub	r26, r22
    3784:	b7 0b       	sbc	r27, r23
    3786:	88 1f       	adc	r24, r24
    3788:	99 1f       	adc	r25, r25
    378a:	5a 95       	dec	r21
    378c:	a9 f7       	brne	.-22     	;  0x3778
    378e:	80 95       	com	r24
    3790:	90 95       	com	r25
    3792:	bc 01       	movw	r22, r24
    3794:	cd 01       	movw	r24, r26
    3796:	08 95       	ret
    3798:	a1 e2       	ldi	r26, 0x21	; 33
    379a:	1a 2e       	mov	r1, r26
    379c:	aa 1b       	sub	r26, r26
    379e:	bb 1b       	sub	r27, r27
    37a0:	fd 01       	movw	r30, r26
    37a2:	0d c0       	rjmp	.+26     	;  0x37be
    37a4:	aa 1f       	adc	r26, r26
    37a6:	bb 1f       	adc	r27, r27
    37a8:	ee 1f       	adc	r30, r30
    37aa:	ff 1f       	adc	r31, r31
    37ac:	a2 17       	cp	r26, r18
    37ae:	b3 07       	cpc	r27, r19
    37b0:	e4 07       	cpc	r30, r20
    37b2:	f5 07       	cpc	r31, r21
    37b4:	20 f0       	brcs	.+8      	;  0x37be
    37b6:	a2 1b       	sub	r26, r18
    37b8:	b3 0b       	sbc	r27, r19
    37ba:	e4 0b       	sbc	r30, r20
    37bc:	f5 0b       	sbc	r31, r21
    37be:	66 1f       	adc	r22, r22
    37c0:	77 1f       	adc	r23, r23
    37c2:	88 1f       	adc	r24, r24
    37c4:	99 1f       	adc	r25, r25
    37c6:	1a 94       	dec	r1
    37c8:	69 f7       	brne	.-38     	;  0x37a4
    37ca:	60 95       	com	r22
    37cc:	70 95       	com	r23
    37ce:	80 95       	com	r24
    37d0:	90 95       	com	r25
    37d2:	9b 01       	movw	r18, r22
    37d4:	ac 01       	movw	r20, r24
    37d6:	bd 01       	movw	r22, r26
    37d8:	cf 01       	movw	r24, r30
    37da:	08 95       	ret
    37dc:	ee 0f       	add	r30, r30
    37de:	ff 1f       	adc	r31, r31
    37e0:	05 90       	lpm	r0, Z+
    37e2:	f4 91       	lpm	r31, Z
    37e4:	e0 2d       	mov	r30, r0
    37e6:	09 94       	ijmp
    37e8:	2f 92       	push	r2
    37ea:	3f 92       	push	r3
    37ec:	4f 92       	push	r4
    37ee:	5f 92       	push	r5
    37f0:	6f 92       	push	r6
    37f2:	7f 92       	push	r7
    37f4:	8f 92       	push	r8
    37f6:	9f 92       	push	r9
    37f8:	af 92       	push	r10
    37fa:	bf 92       	push	r11
    37fc:	cf 92       	push	r12
    37fe:	df 92       	push	r13
    3800:	ef 92       	push	r14
    3802:	ff 92       	push	r15
    3804:	0f 93       	push	r16
    3806:	1f 93       	push	r17
    3808:	cf 93       	push	r28
    380a:	df 93       	push	r29
    380c:	cd b7       	in	r28, 0x3d	; 61
    380e:	de b7       	in	r29, 0x3e	; 62
    3810:	ca 1b       	sub	r28, r26
    3812:	db 0b       	sbc	r29, r27
    3814:	0f b6       	in	r0, 0x3f	; 63
    3816:	f8 94       	cli
    3818:	de bf       	out	0x3e, r29	; 62
    381a:	0f be       	out	0x3f, r0	; 63
    381c:	cd bf       	out	0x3d, r28	; 61
    381e:	09 94       	ijmp
    3820:	2a 88       	ldd	r2, Y+18	; 0x12
    3822:	39 88       	ldd	r3, Y+17	; 0x11
    3824:	48 88       	ldd	r4, Y+16	; 0x10
    3826:	5f 84       	ldd	r5, Y+15	; 0x0f
    3828:	6e 84       	ldd	r6, Y+14	; 0x0e
    382a:	7d 84       	ldd	r7, Y+13	; 0x0d
    382c:	8c 84       	ldd	r8, Y+12	; 0x0c
    382e:	9b 84       	ldd	r9, Y+11	; 0x0b
    3830:	aa 84       	ldd	r10, Y+10	; 0x0a
    3832:	b9 84       	ldd	r11, Y+9	; 0x09
    3834:	c8 84       	ldd	r12, Y+8	; 0x08
    3836:	df 80       	ldd	r13, Y+7	; 0x07
    3838:	ee 80       	ldd	r14, Y+6	; 0x06
    383a:	fd 80       	ldd	r15, Y+5	; 0x05
    383c:	0c 81       	ldd	r16, Y+4	; 0x04
    383e:	1b 81       	ldd	r17, Y+3	; 0x03
    3840:	aa 81       	ldd	r26, Y+2	; 0x02
    3842:	b9 81       	ldd	r27, Y+1	; 0x01
    3844:	ce 0f       	add	r28, r30
    3846:	d1 1d       	adc	r29, r1
    3848:	0f b6       	in	r0, 0x3f	; 63
    384a:	f8 94       	cli
    384c:	de bf       	out	0x3e, r29	; 62
    384e:	0f be       	out	0x3f, r0	; 63
    3850:	cd bf       	out	0x3d, r28	; 61
    3852:	ed 01       	movw	r28, r26
    3854:	08 95       	ret
    3856:	1f 93       	push	r17
    3858:	fc 01       	movw	r30, r24
    385a:	99 27       	eor	r25, r25
    385c:	88 27       	eor	r24, r24
    385e:	bc 01       	movw	r22, r24
    3860:	e8 94       	clt
    3862:	11 91       	ld	r17, Z+
    3864:	10 32       	cpi	r17, 0x20	; 32
    3866:	e9 f3       	breq	.-6      	;  0x3862
    3868:	19 30       	cpi	r17, 0x09	; 9
    386a:	10 f0       	brcs	.+4      	;  0x3870
    386c:	1e 30       	cpi	r17, 0x0E	; 14
    386e:	c8 f3       	brcs	.-14     	;  0x3862
    3870:	1b 32       	cpi	r17, 0x2B	; 43
    3872:	49 f0       	breq	.+18     	;  0x3886
    3874:	1d 32       	cpi	r17, 0x2D	; 45
    3876:	41 f4       	brne	.+16     	;  0x3888
    3878:	68 94       	set
    387a:	05 c0       	rjmp	.+10     	;  0x3886
    387c:	3e d0       	rcall	.+124    	;  0x38fa
    387e:	61 0f       	add	r22, r17
    3880:	71 1d       	adc	r23, r1
    3882:	81 1d       	adc	r24, r1
    3884:	91 1d       	adc	r25, r1
    3886:	11 91       	ld	r17, Z+
    3888:	10 53       	subi	r17, 0x30	; 48
    388a:	1a 30       	cpi	r17, 0x0A	; 10
    388c:	b8 f3       	brcs	.-18     	;  0x387c
    388e:	3e f4       	brtc	.+14     	;  0x389e
    3890:	90 95       	com	r25
    3892:	80 95       	com	r24
    3894:	70 95       	com	r23
    3896:	61 95       	neg	r22
    3898:	7f 4f       	sbci	r23, 0xFF	; 255
    389a:	8f 4f       	sbci	r24, 0xFF	; 255
    389c:	9f 4f       	sbci	r25, 0xFF	; 255
    389e:	1f 91       	pop	r17
    38a0:	08 95       	ret
    38a2:	fb 01       	movw	r30, r22
    38a4:	dc 01       	movw	r26, r24
    38a6:	02 c0       	rjmp	.+4      	;  0x38ac
    38a8:	05 90       	lpm	r0, Z+
    38aa:	0d 92       	st	X+, r0
    38ac:	41 50       	subi	r20, 0x01	; 1
    38ae:	50 40       	sbci	r21, 0x00	; 0
    38b0:	d8 f7       	brcc	.-10     	;  0x38a8
    38b2:	08 95       	ret
    38b4:	fb 01       	movw	r30, r22
    38b6:	dc 01       	movw	r26, r24
    38b8:	05 90       	lpm	r0, Z+
    38ba:	0d 92       	st	X+, r0
    38bc:	00 20       	and	r0, r0
    38be:	e1 f7       	brne	.-8      	;  0x38b8
    38c0:	08 95       	ret
    38c2:	fc 01       	movw	r30, r24
    38c4:	05 90       	lpm	r0, Z+
    38c6:	00 20       	and	r0, r0
    38c8:	e9 f7       	brne	.-6      	;  0x38c4
    38ca:	80 95       	com	r24
    38cc:	90 95       	com	r25
    38ce:	8e 0f       	add	r24, r30
    38d0:	9f 1f       	adc	r25, r31
    38d2:	08 95       	ret
    38d4:	fb 01       	movw	r30, r22
    38d6:	dc 01       	movw	r26, r24
    38d8:	02 c0       	rjmp	.+4      	;  0x38de
    38da:	01 90       	ld	r0, Z+
    38dc:	0d 92       	st	X+, r0
    38de:	41 50       	subi	r20, 0x01	; 1
    38e0:	50 40       	sbci	r21, 0x00	; 0
    38e2:	d8 f7       	brcc	.-10     	;  0x38da
    38e4:	08 95       	ret
    38e6:	bb 27       	eor	r27, r27
    38e8:	4a 30       	cpi	r20, 0x0A	; 10
    38ea:	31 f4       	brne	.+12     	;  0x38f8
    38ec:	99 23       	and	r25, r25
    38ee:	22 f4       	brpl	.+8      	;  0x38f8
    38f0:	bd e2       	ldi	r27, 0x2D	; 45
    38f2:	90 95       	com	r25
    38f4:	81 95       	neg	r24
    38f6:	9f 4f       	sbci	r25, 0xFF	; 255
    38f8:	37 c0       	rjmp	.+110    	;  0x3968
    38fa:	59 2f       	mov	r21, r25
    38fc:	48 2f       	mov	r20, r24
    38fe:	37 2f       	mov	r19, r23
    3900:	26 2f       	mov	r18, r22
    3902:	66 0f       	add	r22, r22
    3904:	77 1f       	adc	r23, r23
    3906:	88 1f       	adc	r24, r24
    3908:	99 1f       	adc	r25, r25
    390a:	66 0f       	add	r22, r22
    390c:	77 1f       	adc	r23, r23
    390e:	88 1f       	adc	r24, r24
    3910:	99 1f       	adc	r25, r25
    3912:	62 0f       	add	r22, r18
    3914:	73 1f       	adc	r23, r19
    3916:	84 1f       	adc	r24, r20
    3918:	95 1f       	adc	r25, r21
    391a:	66 0f       	add	r22, r22
    391c:	77 1f       	adc	r23, r23
    391e:	88 1f       	adc	r24, r24
    3920:	99 1f       	adc	r25, r25
    3922:	08 95       	ret
    3924:	bb 27       	eor	r27, r27
    3926:	fa 01       	movw	r30, r20
    3928:	a6 2f       	mov	r26, r22
    392a:	62 17       	cp	r22, r18
    392c:	71 05       	cpc	r23, r1
    392e:	81 05       	cpc	r24, r1
    3930:	91 05       	cpc	r25, r1
    3932:	33 0b       	sbc	r19, r19
    3934:	30 fb       	bst	r19, 0
    3936:	66 f0       	brts	.+24     	;  0x3950
    3938:	aa 27       	eor	r26, r26
    393a:	66 0f       	add	r22, r22
    393c:	77 1f       	adc	r23, r23
    393e:	88 1f       	adc	r24, r24
    3940:	99 1f       	adc	r25, r25
    3942:	aa 1f       	adc	r26, r26
    3944:	a2 17       	cp	r26, r18
    3946:	10 f0       	brcs	.+4      	;  0x394c
    3948:	a2 1b       	sub	r26, r18
    394a:	63 95       	inc	r22
    394c:	38 50       	subi	r19, 0x08	; 8
    394e:	a9 f7       	brne	.-22     	;  0x393a
    3950:	a0 5d       	subi	r26, 0xD0	; 208
    3952:	aa 33       	cpi	r26, 0x3A	; 58
    3954:	08 f0       	brcs	.+2      	;  0x3958
    3956:	a9 5d       	subi	r26, 0xD9	; 217
    3958:	a1 93       	st	Z+, r26
    395a:	36 f7       	brtc	.-52     	;  0x3928
    395c:	b1 11       	cpse	r27, r1
    395e:	b1 93       	st	Z+, r27
    3960:	10 82       	st	Z, r1
    3962:	ca 01       	movw	r24, r20
    3964:	19 c0       	rjmp	.+50     	;  0x3998
    3966:	bb 27       	eor	r27, r27
    3968:	fb 01       	movw	r30, r22
    396a:	55 27       	eor	r21, r21
    396c:	aa 27       	eor	r26, r26
    396e:	88 0f       	add	r24, r24
    3970:	99 1f       	adc	r25, r25
    3972:	aa 1f       	adc	r26, r26
    3974:	a4 17       	cp	r26, r20
    3976:	10 f0       	brcs	.+4      	;  0x397c
    3978:	a4 1b       	sub	r26, r20
    397a:	83 95       	inc	r24
    397c:	50 51       	subi	r21, 0x10	; 16
    397e:	b9 f7       	brne	.-18     	;  0x396e
    3980:	a0 5d       	subi	r26, 0xD0	; 208
    3982:	aa 33       	cpi	r26, 0x3A	; 58
    3984:	08 f0       	brcs	.+2      	;  0x3988
    3986:	a9 5d       	subi	r26, 0xD9	; 217
    3988:	a1 93       	st	Z+, r26
    398a:	00 97       	sbiw	r24, 0x00	; 0
    398c:	79 f7       	brne	.-34     	;  0x396c
    398e:	b1 11       	cpse	r27, r1
    3990:	b1 93       	st	Z+, r27
    3992:	11 92       	st	Z+, r1
    3994:	cb 01       	movw	r24, r22
    3996:	00 c0       	rjmp	.+0      	;  0x3998
    3998:	dc 01       	movw	r26, r24
    399a:	fc 01       	movw	r30, r24
    399c:	67 2f       	mov	r22, r23
    399e:	71 91       	ld	r23, Z+
    39a0:	77 23       	and	r23, r23
    39a2:	e1 f7       	brne	.-8      	;  0x399c
    39a4:	32 97       	sbiw	r30, 0x02	; 2
    39a6:	04 c0       	rjmp	.+8      	;  0x39b0
    39a8:	7c 91       	ld	r23, X
    39aa:	6d 93       	st	X+, r22
    39ac:	70 83       	st	Z, r23
    39ae:	62 91       	ld	r22, -Z
    39b0:	ae 17       	cp	r26, r30
    39b2:	bf 07       	cpc	r27, r31
    39b4:	c8 f3       	brcs	.-14     	;  0x39a8
    39b6:	08 95       	ret
    39b8:	f9 99       	sbic	0x1f, 1	; 31
    39ba:	fe cf       	rjmp	.-4      	;  0x39b8
    39bc:	92 bd       	out	0x22, r25	; 34
    39be:	81 bd       	out	0x21, r24	; 33
    39c0:	f8 9a       	sbi	0x1f, 0	; 31
    39c2:	99 27       	eor	r25, r25
    39c4:	80 b5       	in	r24, 0x20	; 32
    39c6:	08 95       	ret
    39c8:	f8 94       	cli
    39ca:	ff cf       	rjmp	.-2      	;  0x39ca
